(dp0
S'Q8TBF4'
p1
c__builtin__
set
p2
((lp3
S'IPR034219'
p4
aS'IPR003954'
p5
aS'IPR035979'
p6
aS'IPR000504'
p7
aS'IPR001878'
p8
aS'IPR036875'
p9
atp10
Rp11
sS'O00625'
p12
g2
((lp13
S'IPR003829'
p14
aS'IPR008778'
p15
aS'IPR012093'
p16
aS'IPR011051'
p17
aS'IPR014710'
p18
atp19
Rp20
sS'B0YJ81'
p21
g2
((lp22
S'IPR007482'
p23
atp24
Rp25
sS'P0AEA5'
p26
g2
((lp27
S'IPR030470'
p28
aS'IPR006369'
p29
aS'IPR000537'
p30
atp31
Rp32
sS'Q02521'
p33
g2
((lp34
S'IPR026822'
p35
aS'IPR000467'
p36
atp37
Rp38
sS'P54900'
p39
g2
((lp40
S'IPR003599'
p41
aS'IPR007110'
p42
aS'IPR036179'
p43
aS'IPR013106'
p44
aS'IPR013783'
p45
aS'IPR021157'
p46
aS'IPR000920'
p47
atp48
Rp49
sS'Q9ZUU1'
p50
g2
((lp51
S'IPR006259'
p52
aS'IPR027417'
p53
aS'IPR000850'
p54
aS'IPR033690'
p55
atp56
Rp57
sS'P40554'
p58
g2
((lp59
S'IPR015221'
p60
aS'IPR016155'
p61
aS'IPR012675'
p62
atp63
Rp64
sS'Q5EG05'
p65
g2
((lp66
S'IPR001315'
p67
aS'IPR011029'
p68
atp69
Rp70
sS'Q9H6Q3'
p71
g2
((lp72
S'IPR001452'
p73
aS'IPR036860'
p74
aS'IPR000980'
p75
aS'IPR036028'
p76
aS'IPR035052'
p77
atp78
Rp79
sS'P30187'
p80
g2
((lp81
S'IPR011992'
p82
aS'IPR018247'
p83
aS'IPR002048'
p84
atp85
Rp86
sS'P13693'
p87
g2
((lp88
S'IPR034737'
p89
aS'IPR018103'
p90
aS'IPR011057'
p91
aS'IPR018105'
p92
atp93
Rp94
sS'Q86WA6'
p95
g2
((lp96
S'IPR000073'
p97
aS'IPR029058'
p98
atp99
Rp100
sS'P40553'
p101
g2
((lp102
S'IPR000866'
p103
aS'IPR036249'
p104
aS'IPR013766'
p105
atp106
Rp107
sS'Q8N0U8'
p108
g2
((lp109
S'IPR012932'
p110
atp111
Rp112
sS'P0AE72'
p113
g2
((lp114
S'IPR007159'
p115
atp116
Rp117
sS'P40558'
p118
g2
((lp119
S'IPR033756'
p120
aS'IPR019591'
p121
aS'IPR000808'
p122
aS'IPR027417'
p123
aS'IPR028600'
p124
atp125
Rp126
sS'Q9UEU0'
p127
g2
((lp128
S'IPR007705'
p129
aS'IPR010989'
p130
aS'IPR000727'
p131
atp132
Rp133
sS'P40228'
p134
g2
((lp135
S'IPR000704'
p136
aS'IPR016149'
p137
aS'IPR035991'
p138
atp139
Rp140
sS'P49771'
p141
g2
((lp142
S'IPR004213'
p143
aS'IPR009079'
p144
atp145
Rp146
sS'Q9R059'
p147
g2
((lp148
S'IPR001781'
p149
atp150
Rp151
sS'Q9V6Q2'
p152
g2
((lp153
S'IPR007125'
p154
aS'IPR009072'
p155
aS'IPR000164'
p156
atp157
Rp158
sS'Q42539'
p159
g2
((lp160
S'IPR000682'
p161
aS'IPR029063'
p162
atp163
Rp164
sS'Q86YI8'
p165
g2
((lp166
S'IPR011011'
p167
aS'IPR001965'
p168
aS'IPR019787'
p169
aS'IPR013083'
p170
atp171
Rp172
sS'Q9FIJ7'
p173
g2
((lp174
S'IPR006259'
p175
aS'IPR027417'
p176
aS'IPR000850'
p177
aS'IPR033690'
p178
atp179
Rp180
sS'Q42533'
p181
g2
((lp182
S'IPR001882'
p183
aS'IPR000089'
p184
aS'IPR011053'
p185
aS'IPR001249'
p186
atp187
Rp188
sS'P87108'
p189
g2
((lp190
S'IPR004217'
p191
aS'IPR035427'
p192
atp193
Rp194
sS'P25372'
p195
g2
((lp196
S'IPR005746'
p197
aS'IPR017937'
p198
aS'IPR036249'
p199
aS'IPR013766'
p200
atp201
Rp202
sS'O70257'
p203
g2
((lp204
S'IPR006012'
p205
aS'IPR006011'
p206
aS'IPR010989'
p207
aS'IPR000727'
p208
atp209
Rp210
sS'Q9ZW84'
p211
g2
((lp212
S'IPR015928'
p213
aS'IPR000573'
p214
aS'IPR033940'
p215
atp216
Rp217
sS'P34901'
p218
g2
((lp219
S'IPR030479'
p220
aS'IPR027789'
p221
aS'IPR021157'
p222
aS'IPR003585'
p223
atp224
Rp225
sS'Q8L9T7'
p226
g2
((lp227
S'IPR036641'
p228
aS'IPR008207'
p229
atp230
Rp231
sS'Q01976'
p232
g2
((lp233
S'IPR020084'
p234
aS'IPR000086'
p235
aS'IPR015797'
p236
atp237
Rp238
sS'P32799'
p239
g2
((lp240
S'IPR036418'
p241
aS'IPR018507'
p242
aS'IPR001349'
p243
atp244
Rp245
sS'P38175'
p246
g2
((lp247
S'IPR001911'
p248
atp249
Rp250
sS'Q9Y2R5'
p251
g2
((lp252
S'IPR000266'
p253
aS'IPR012340'
p254
atp255
Rp256
sS'O43513'
p257
g2
((lp258
S'IPR009244'
p259
aS'IPR037212'
p260
atp261
Rp262
sS'Q8N2A8'
p263
g2
((lp264
S'IPR025202'
p265
aS'IPR001736'
p266
atp267
Rp268
sS'P51673'
p269
g2
((lp270
S'IPR000566'
p271
aS'IPR000463'
p272
aS'IPR012674'
p273
atp274
Rp275
sS'Q00246'
p276
g2
((lp277
S'IPR003578'
p278
aS'IPR005225'
p279
aS'IPR027417'
p280
aS'IPR001806'
p281
atp282
Rp283
sS'P31109'
p284
g2
((lp285
S'IPR001388'
p286
aS'IPR016444'
p287
atp288
Rp289
sS'Q9SRK5'
p290
g2
((lp291
S'IPR029021'
p292
aS'IPR020422'
p293
aS'IPR000340'
p294
aS'IPR000387'
p295
atp296
Rp297
sS'P07919'
p298
g2
((lp299
S'IPR023184'
p300
aS'IPR036811'
p301
aS'IPR003422'
p302
atp303
Rp304
sS'O95816'
p305
g2
((lp306
S'IPR003103'
p307
atp308
Rp309
sS'B7ZS96'
p310
g2
((lp311
S'IPR023416'
p312
aS'IPR036817'
p313
aS'IPR000895'
p314
aS'IPR023418'
p315
aS'IPR023419'
p316
atp317
Rp318
sS'Q8K0H5'
p319
g2
((lp320
S'IPR003923'
p321
atp322
Rp323
sS'O55042'
p324
g2
((lp325
S'IPR002460'
p326
aS'IPR001058'
p327
atp328
Rp329
sS'G3XCU9'
p330
g2
((lp331
S'IPR013572'
p332
aS'IPR009057'
p333
aS'IPR001647'
p334
aS'IPR036271'
p335
atp336
Rp337
sS'Q63042'
p338
g2
((lp339
S'IPR036774'
p340
aS'IPR017905'
p341
atp342
Rp343
sS'Q9SAH5'
p344
g2
((lp345
S'IPR007318'
p346
aS'IPR024960'
p347
atp348
Rp349
sS'O88653'
p350
g2
((lp351
S'IPR015019'
p352
atp353
Rp354
sS'A8R0V4'
p355
g2
((lp356
S'IPR032253'
p357
atp358
Rp359
sS'P20434'
p360
g2
((lp361
S'IPR014381'
p362
aS'IPR000783'
p363
aS'IPR036710'
p364
aS'IPR020608'
p365
aS'IPR020609'
p366
aS'IPR035913'
p367
aS'IPR005571'
p368
atp369
Rp370
sS'P40422'
p371
g2
((lp372
S'IPR029040'
p373
aS'IPR006591'
p374
atp375
Rp376
sS'Q921C1'
p377
g2
((lp378
S'IPR017990'
p379
aS'IPR000500'
p380
aS'IPR019570'
p381
aS'IPR013092'
p382
atp383
Rp384
sS'Q8L7W5'
p385
g2
((lp386
S'IPR006694'
p387
atp388
Rp389
sS'P30185'
p390
g2
((lp391
S'IPR030513'
p392
aS'IPR000167'
p393
atp394
Rp395
sS'Q07699'
p396
g2
((lp397
S'IPR013106'
p398
aS'IPR013783'
p399
aS'IPR036179'
p400
atp401
Rp402
sS'Q99732'
p403
g2
((lp404
S'IPR006629'
p405
atp406
Rp407
sS'P40224'
p408
g2
((lp409
S'IPR001811'
p410
aS'IPR033899'
p411
aS'IPR036048'
p412
atp413
Rp414
sS'P29084'
p415
g2
((lp416
S'IPR036388'
p417
aS'IPR016656'
p418
aS'IPR003166'
p419
aS'IPR036390'
p420
atp421
Rp422
sS'Q7TSP5'
p423
g2
((lp424
S'IPR003599'
p425
aS'IPR003598'
p426
aS'IPR036179'
p427
aS'IPR007110'
p428
aS'IPR013106'
p429
aS'IPR013783'
p430
atp431
Rp432
sS'P70160'
p433
g2
((lp434
S'IPR001693'
p435
aS'IPR021118'
p436
aS'IPR018360'
p437
aS'IPR021116'
p438
atp439
Rp440
sS'Q86WV5'
p441
g2
((lp442
S'IPR029146'
p443
atp444
Rp445
sS'Q5I0M2'
p446
g2
((lp447
S'IPR027277'
p448
aS'IPR037128'
p449
aS'IPR013785'
p450
aS'IPR002638'
p451
aS'IPR004393'
p452
aS'IPR022412'
p453
aS'IPR036068'
p454
atp455
Rp456
sS'P54479'
p457
g2
((lp458
S'IPR036388'
p459
aS'IPR002481'
p460
aS'IPR036390'
p461
atp462
Rp463
sS'P87176'
p464
g2
((lp465
S'IPR017907'
p466
aS'IPR001841'
p467
aS'IPR013083'
p468
atp469
Rp470
sS'P33931'
p471
g2
((lp472
S'IPR003593'
p473
aS'IPR017871'
p474
aS'IPR005895'
p475
aS'IPR027417'
p476
aS'IPR003439'
p477
atp478
Rp479
sS'Q9BTP7'
p480
g2
((lp481
S'IPR010994'
p482
atp483
Rp484
sS'P20645'
p485
g2
((lp486
S'IPR028927'
p487
aS'IPR000296'
p488
aS'IPR009011'
p489
atp490
Rp491
sS'Q9WVA1'
p492
g2
((lp493
S'IPR004217'
p494
aS'IPR035427'
p495
atp496
Rp497
sS'P83859'
p498
g2
((lp499
S'IPR024565'
p500
atp501
Rp502
sS'P38301'
p503
g2
((lp504
S'IPR001727'
p505
atp506
Rp507
sS'P78346'
p508
g2
((lp509
S'IPR016195'
p510
aS'IPR002738'
p511
atp512
Rp513
sS'Q9QWG7'
p514
g2
((lp515
S'IPR027417'
p516
aS'IPR000863'
p517
atp518
Rp519
sS'P0CX80'
p520
g2
((lp521
S'IPR017854'
p522
aS'IPR037130'
p523
aS'IPR022710'
p524
atp525
Rp526
sS'Q96288'
p527
g2
((lp528
S'IPR000315'
p529
atp530
Rp531
sS'P02764'
p532
g2
((lp533
S'IPR000566'
p534
aS'IPR001500'
p535
aS'IPR012674'
p536
atp537
Rp538
sS'P40035'
p539
g2
((lp540
S'IPR018108'
p541
aS'IPR023395'
p542
atp543
Rp544
sS'Q04323'
p545
g2
((lp546
S'IPR001012'
p547
aS'IPR009060'
p548
aS'IPR015940'
p549
aS'IPR029071'
p550
atp551
Rp552
sS'P82912'
p553
g2
((lp554
S'IPR018102'
p555
aS'IPR036967'
p556
aS'IPR001971'
p557
atp558
Rp559
sS'Q15004'
p560
g2
((lp561
S'IPR031444'
p562
atp563
Rp564
sS'P18491'
p565
g2
((lp566
S'IPR011598'
p567
aS'IPR036638'
p568
atp569
Rp570
sS'Q9M9M9'
p571
g2
((lp572
S'IPR007763'
p573
atp574
Rp575
sS'Q9FJH5'
p576
g2
((lp577
S'IPR006121'
p578
aS'IPR036163'
p579
atp580
Rp581
sS'P35189'
p582
g2
((lp583
S'IPR016665'
p584
aS'IPR027353'
p585
aS'IPR005033'
p586
atp587
Rp588
sS'G3XD78'
p589
g2
((lp590
S'IPR010982'
p591
atp592
Rp593
sS'Q62625'
p594
g2
((lp595
S'IPR004241'
p596
aS'IPR029071'
p597
atp598
Rp599
sS'Q96CA5'
p600
g2
((lp601
S'IPR001841'
p602
aS'IPR001370'
p603
aS'IPR017907'
p604
aS'IPR013083'
p605
atp606
Rp607
sS'P61457'
p608
g2
((lp609
S'IPR036428'
p610
aS'IPR001533'
p611
atp612
Rp613
sS'Q9VKD7'
p614
g2
((lp615
S'IPR025202'
p616
atp617
Rp618
sS'Q9ULY5'
p619
g2
((lp620
S'IPR033989'
p621
aS'IPR001304'
p622
aS'IPR016186'
p623
aS'IPR016187'
p624
atp625
Rp626
sS'O60573'
p627
g2
((lp628
S'IPR023398'
p629
aS'IPR019770'
p630
aS'IPR001040'
p631
atp632
Rp633
sS'Q9D2E9'
p634
g2
((lp635
S'IPR028248'
p636
atp637
Rp638
sS'O15392'
p639
g2
((lp640
S'IPR001370'
p641
atp642
Rp643
sS'Q6P1K2'
p644
g2
((lp645
S'IPR007128'
p646
aS'IPR027267'
p647
atp648
Rp649
sS'Q13901'
p650
g2
((lp651
S'IPR007146'
p652
atp653
Rp654
sS'Q9CQS7'
p655
g2
((lp656
S'IPR031952'
p657
aS'IPR036612'
p658
atp659
Rp660
sS'Q9UMS0'
p661
g2
((lp662
S'IPR034904'
p663
aS'IPR001075'
p664
aS'IPR036498'
p665
aS'IPR035433'
p666
aS'IPR014824'
p667
atp668
Rp669
sS'Q811W0'
p670
g2
((lp671
S'IPR036910'
p672
aS'IPR009071'
p673
aS'IPR022097'
p674
atp675
Rp676
sS'P03961'
p677
g2
((lp678
S'IPR003820'
p679
atp680
Rp681
sS'P03962'
p682
g2
((lp683
S'IPR018089'
p684
aS'IPR011060'
p685
aS'IPR014732'
p686
aS'IPR013785'
p687
aS'IPR001754'
p688
atp689
Rp690
sS'Q13145'
p691
g2
((lp692
S'IPR009345'
p693
atp694
Rp695
sS'Q04935'
p696
g2
((lp697
S'IPR022533'
p698
aS'IPR016529'
p699
atp700
Rp701
sS'Q08747'
p702
g2
((lp703
S'IPR019835'
p704
aS'IPR014876'
p705
aS'IPR003121'
p706
aS'IPR036885'
p707
atp708
Rp709
sS'G3XD77'
p710
g2
((lp711
S'IPR036388'
p712
aS'IPR016032'
p713
aS'IPR005143'
p714
aS'IPR000792'
p715
aS'IPR036693'
p716
atp717
Rp718
sS'O75792'
p719
g2
((lp720
S'IPR036397'
p721
aS'IPR012337'
p722
aS'IPR024567'
p723
aS'IPR004649'
p724
aS'IPR023160'
p725
atp726
Rp727
sS'P35244'
p728
g2
((lp729
S'IPR012340'
p730
aS'IPR013970'
p731
atp732
Rp733
sS'Q9NZC2'
p734
g2
((lp735
S'IPR013106'
p736
aS'IPR013783'
p737
aS'IPR036179'
p738
atp739
Rp740
sS'Q9NZC4'
p741
g2
((lp742
S'IPR036388'
p743
aS'IPR013761'
p744
aS'IPR036390'
p745
aS'IPR003118'
p746
aS'IPR000418'
p747
atp748
Rp749
sS'Q9EPR2'
p750
g2
((lp751
S'IPR033113'
p752
aS'IPR010711'
p753
aS'IPR036444'
p754
atp755
Rp756
sS'Q7TSB7'
p757
g2
((lp758
S'IPR020207'
p759
atp760
Rp761
sS'O75438'
p762
g2
((lp763
S'IPR012575'
p764
atp765
Rp766
sS'P63161'
p767
g2
((lp768
S'IPR000369'
p769
aS'IPR005425'
p770
atp771
Rp772
sS'P15992'
p773
g2
((lp774
S'IPR008978'
p775
aS'IPR002068'
p776
atp777
Rp778
sS'P01127'
p779
g2
((lp780
S'IPR006782'
p781
aS'IPR023581'
p782
aS'IPR029034'
p783
aS'IPR000072'
p784
atp785
Rp786
sS'P32265'
p787
g2
((lp788
S'IPR009057'
p789
aS'IPR036271'
p790
atp791
Rp792
sS'Q6IQ19'
p793
g2
((lp794
S'IPR029774'
p795
atp796
Rp797
sS'Q86YW7'
p798
g2
((lp799
S'IPR006208'
p800
aS'IPR001545'
p801
aS'IPR029034'
p802
atp803
Rp804
sS'Q13519'
p805
g2
((lp806
S'IPR006024'
p807
aS'IPR002367'
p808
atp809
Rp810
sS'Q00059'
p811
g2
((lp812
S'IPR036910'
p813
aS'IPR009071'
p814
atp815
Rp816
sS'Q96D96'
p817
g2
((lp818
S'IPR031844'
p819
aS'IPR005821'
p820
atp821
Rp822
sS'P03069'
p823
g2
((lp824
S'IPR004827'
p825
atp826
Rp827
sS'Q719H9'
p828
g2
((lp829
S'IPR011333'
p830
aS'IPR003131'
p831
aS'IPR000210'
p832
atp833
Rp834
sS'P62805'
p835
g2
((lp836
S'IPR001951'
p837
aS'IPR019809'
p838
aS'IPR035425'
p839
aS'IPR009072'
p840
aS'IPR004823'
p841
atp842
Rp843
sS'P61016'
p844
g2
((lp845
S'IPR005984'
p846
atp847
Rp848
sS'P18776'
p849
g2
((lp850
S'IPR014297'
p851
aS'IPR017900'
p852
aS'IPR017896'
p853
atp854
Rp855
sS'P25554'
p856
g2
((lp857
S'IPR010750'
p858
atp859
Rp860
sS'Q92383'
p861
g2
((lp862
S'IPR003265'
p863
aS'IPR000035'
p864
aS'IPR023170'
p865
aS'IPR011257'
p866
atp867
Rp868
sS'Q9UKL6'
p869
g2
((lp870
S'IPR002913'
p871
aS'IPR023393'
p872
atp873
Rp874
sS'P14020'
p875
g2
((lp876
S'IPR001173'
p877
aS'IPR029044'
p878
atp879
Rp880
sS'Q9FF52'
p881
g2
((lp882
S'IPR020784'
p883
aS'IPR020785'
p884
aS'IPR036769'
p885
aS'IPR020783'
p886
aS'IPR000911'
p887
aS'IPR036796'
p888
atp889
Rp890
sS'Q13352'
p891
g2
((lp892
S'IPR009601'
p893
atp894
Rp895
sS'P06282'
p896
g2
((lp897
S'IPR015993'
p898
aS'IPR003763'
p899
aS'IPR036265'
p900
atp901
Rp902
sS'Q9SKZ1'
p903
g2
((lp904
S'IPR006628'
p905
atp906
Rp907
sS'Q9SKZ3'
p908
g2
((lp909
S'IPR029064'
p910
aS'IPR000530'
p911
aS'IPR004038'
p912
atp913
Rp914
sS'P36542'
p915
g2
((lp916
S'IPR023632'
p917
aS'IPR035968'
p918
aS'IPR000131'
p919
atp920
Rp921
sS'P36015'
p922
g2
((lp923
S'IPR011012'
p924
aS'IPR001388'
p925
aS'IPR010908'
p926
atp927
Rp928
sS'Q9ZV87'
p929
g2
((lp930
S'IPR000872'
p931
aS'IPR002123'
p932
atp933
Rp934
sS'P36012'
p935
g2
((lp936
S'IPR000164'
p937
aS'IPR009072'
p938
aS'IPR007125'
p939
atp940
Rp941
sS'O88846'
p942
g2
((lp943
S'IPR017907'
p944
aS'IPR001841'
p945
aS'IPR013083'
p946
atp947
Rp948
sS'P46136'
p949
g2
((lp950
S'IPR000620'
p951
atp952
Rp953
sS'Q9Y6G3'
p954
g2
((lp955
S'IPR019346'
p956
atp957
Rp958
sS'P0A7F6'
p959
g2
((lp960
S'IPR009165'
p961
aS'IPR016067'
p962
aS'IPR003826'
p963
atp964
Rp965
sS'P0C024'
p966
g2
((lp967
S'IPR000086'
p968
aS'IPR000059'
p969
aS'IPR015797'
p970
atp971
Rp972
sS'O74983'
p973
g2
((lp974
S'IPR000608'
p975
aS'IPR016135'
p976
atp977
Rp978
sS'P43145'
p979
g2
((lp980
S'IPR021116'
p981
aS'IPR001710'
p982
atp983
Rp984
sS'O75586'
p985
g2
((lp986
S'IPR007018'
p987
aS'IPR016820'
p988
atp989
Rp990
sS'Q9NR33'
p991
g2
((lp992
S'IPR003958'
p993
aS'IPR009072'
p994
atp995
Rp996
sS'Q94KK6'
p997
g2
((lp998
S'IPR006012'
p999
aS'IPR000727'
p1000
atp1001
Rp1002
sS'Q94KK7'
p1003
g2
((lp1004
S'IPR006012'
p1005
aS'IPR000727'
p1006
atp1007
Rp1008
sS'Q76JU9'
p1009
g2
((lp1010
S'IPR000276'
p1011
aS'IPR017452'
p1012
aS'IPR013312'
p1013
aS'IPR013313'
p1014
atp1015
Rp1016
sS'Q14197'
p1017
g2
((lp1018
S'IPR000352'
p1019
atp1020
Rp1021
sS'P32601'
p1022
g2
((lp1023
S'IPR007515'
p1024
aS'IPR011057'
p1025
atp1026
Rp1027
sS'P22354'
p1028
g2
((lp1029
S'IPR024388'
p1030
atp1031
Rp1032
sS'Q39165'
p1033
g2
((lp1034
S'IPR000136'
p1035
atp1036
Rp1037
sS'P32605'
p1038
g2
((lp1039
S'IPR000504'
p1040
aS'IPR035979'
p1041
atp1042
Rp1043
sS'P33204'
p1044
g2
((lp1045
S'IPR008384'
p1046
aS'IPR034666'
p1047
atp1048
Rp1049
sS'P01215'
p1050
g2
((lp1051
S'IPR000476'
p1052
aS'IPR029034'
p1053
atp1054
Rp1055
sS'Q9LXC9'
p1056
g2
((lp1057
S'IPR036649'
p1058
aS'IPR008162'
p1059
atp1060
Rp1061
sS'Q3UK10'
p1062
g2
((lp1063
S'IPR010796'
p1064
atp1065
Rp1066
sS'O60760'
p1067
g2
((lp1068
S'IPR036249'
p1069
aS'IPR036282'
p1070
aS'IPR004046'
p1071
aS'IPR010987'
p1072
aS'IPR004045'
p1073
atp1074
Rp1075
sS'O60762'
p1076
g2
((lp1077
S'IPR001173'
p1078
aS'IPR029044'
p1079
atp1080
Rp1081
sS'O95415'
p1082
g2
((lp1083
S'IPR019317'
p1084
atp1085
Rp1086
sS'P62899'
p1087
g2
((lp1088
S'IPR023621'
p1089
aS'IPR000054'
p1090
aS'IPR020052'
p1091
atp1092
Rp1093
sS'O22703'
p1094
g2
((lp1095
S'IPR035979'
p1096
aS'IPR000504'
p1097
aS'IPR001878'
p1098
aS'IPR036875'
p1099
atp1100
Rp1101
sS'Q9C8L4'
p1102
g2
((lp1103
S'IPR001279'
p1104
aS'IPR036866'
p1105
atp1106
Rp1107
sS'Q9BIW4'
p1108
g2
((lp1109
S'IPR001781'
p1110
atp1111
Rp1112
sS'Q9BIW5'
p1113
g2
((lp1114
S'IPR001781'
p1115
atp1116
Rp1117
sS'Q8WVK7'
p1118
g2
((lp1119
S'IPR026762'
p1120
atp1121
Rp1122
sS'Q16633'
p1123
g2
((lp1124
S'IPR015389'
p1125
atp1126
Rp1127
sS'Q9UNN8'
p1128
g2
((lp1129
S'IPR037055'
p1130
aS'IPR011162'
p1131
aS'IPR011161'
p1132
atp1133
Rp1134
sS'P24008'
p1135
g2
((lp1136
S'IPR001104'
p1137
aS'IPR016636'
p1138
atp1139
Rp1140
sS'Q8BMC1'
p1141
g2
((lp1142
S'IPR005124'
p1143
atp1144
Rp1145
sS'P87284'
p1146
g2
((lp1147
S'IPR000612'
p1148
atp1149
Rp1150
sS'Q03125'
p1151
g2
((lp1152
S'IPR013087'
p1153
aS'IPR036236'
p1154
atp1155
Rp1156
sS'Q9CWE6'
p1157
g2
((lp1158
S'IPR031952'
p1159
atp1160
Rp1161
sS'Q96T91'
p1162
g2
((lp1163
S'IPR006207'
p1164
aS'IPR029034'
p1165
aS'IPR000476'
p1166
atp1167
Rp1168
sS'Q9UHF0'
p1169
g2
((lp1170
S'IPR013055'
p1171
aS'IPR003635'
p1172
atp1173
Rp1174
sS'P42925'
p1175
g2
((lp1176
S'IPR007248'
p1177
atp1178
Rp1179
sS'P48363'
p1180
g2
((lp1181
S'IPR016655'
p1182
aS'IPR004127'
p1183
atp1184
Rp1185
sS'Q99935'
p1186
g2
((lp1187
S'IPR026288'
p1188
atp1189
Rp1190
sS'Q96CJ1'
p1191
g2
((lp1192
S'IPR019194'
p1193
atp1194
Rp1195
sS'O94907'
p1196
g2
((lp1197
S'IPR006796'
p1198
atp1199
Rp1200
sS'Q99PG4'
p1201
g2
((lp1202
S'IPR024066'
p1203
aS'IPR036305'
p1204
aS'IPR016137'
p1205
atp1206
Rp1207
sS'Q60817'
p1208
g2
((lp1209
S'IPR016641'
p1210
aS'IPR002715'
p1211
atp1212
Rp1213
sS'Q5TA50'
p1214
g2
((lp1215
S'IPR014830'
p1216
aS'IPR036497'
p1217
atp1218
Rp1219
sS'P50596'
p1220
g2
((lp1221
S'IPR000065'
p1222
aS'IPR009079'
p1223
atp1224
Rp1225
sS'P50591'
p1226
g2
((lp1227
S'IPR008983'
p1228
aS'IPR021184'
p1229
aS'IPR017355'
p1230
aS'IPR006052'
p1231
atp1232
Rp1233
sS'P36618'
p1234
g2
((lp1235
S'IPR000195'
p1236
aS'IPR035969'
p1237
atp1238
Rp1239
sS'Q80WM3'
p1240
g2
((lp1241
S'IPR008849'
p1242
atp1243
Rp1244
sS'Q43295'
p1245
g2
((lp1246
S'IPR027417'
p1247
aS'IPR002891'
p1248
atp1249
Rp1250
sS'O35980'
p1251
g2
((lp1252
S'IPR030841'
p1253
aS'IPR004036'
p1254
aS'IPR011257'
p1255
aS'IPR003651'
p1256
aS'IPR003265'
p1257
aS'IPR023170'
p1258
aS'IPR000445'
p1259
atp1260
Rp1261
sS'Q9FT52'
p1262
g2
((lp1263
S'IPR036228'
p1264
aS'IPR008689'
p1265
aS'IPR026564'
p1266
atp1267
Rp1268
sS'Q12416'
p1269
g2
((lp1270
S'IPR013734'
p1271
atp1272
Rp1273
sS'Q8IP62'
p1274
g2
((lp1275
S'IPR023611'
p1276
atp1277
Rp1278
sS'P06748'
p1279
g2
((lp1280
S'IPR024057'
p1281
aS'IPR036824'
p1282
aS'IPR032569'
p1283
atp1284
Rp1285
sS'Q9UGB7'
p1286
g2
((lp1287
S'IPR007828'
p1288
atp1289
Rp1290
sS'Q15544'
p1291
g2
((lp1292
S'IPR006809'
p1293
aS'IPR009072'
p1294
atp1295
Rp1296
sS'Q9HW86'
p1297
g2
((lp1298
S'IPR036366'
p1299
aS'IPR035616'
p1300
atp1301
Rp1302
sS'P40509'
p1303
g2
((lp1304
S'IPR006822'
p1305
aS'IPR011990'
p1306
atp1307
Rp1308
sS'P33681'
p1309
g2
((lp1310
S'IPR003599'
p1311
aS'IPR007110'
p1312
aS'IPR036179'
p1313
aS'IPR013162'
p1314
aS'IPR013106'
p1315
aS'IPR013783'
p1316
atp1317
Rp1318
sS'Q9STX9'
p1319
g2
((lp1320
S'IPR000425'
p1321
aS'IPR023271'
p1322
aS'IPR022357'
p1323
atp1324
Rp1325
sS'P10683'
p1326
g2
((lp1327
S'IPR013068'
p1328
aS'IPR008174'
p1329
aS'IPR008175'
p1330
atp1331
Rp1332
sS'P39926'
p1333
g2
((lp1334
S'IPR006012'
p1335
aS'IPR006011'
p1336
aS'IPR010989'
p1337
aS'IPR000727'
p1338
atp1339
Rp1340
sS'Q9LIN3'
p1341
g2
((lp1342
S'IPR035979'
p1343
aS'IPR000504'
p1344
aS'IPR001878'
p1345
aS'IPR036875'
p1346
atp1347
Rp1348
sS'Q5FW52'
p1349
g2
((lp1350
S'IPR029331'
p1351
atp1352
Rp1353
sS'P30793'
p1354
g2
((lp1355
S'IPR020602'
p1356
aS'IPR001474'
p1357
aS'IPR018234'
p1358
atp1359
Rp1360
sS'Q5FW60'
p1361
g2
((lp1362
S'IPR002345'
p1363
aS'IPR000566'
p1364
aS'IPR002971'
p1365
aS'IPR012674'
p1366
aS'IPR022272'
p1367
atp1368
Rp1369
sS'P0ACB4'
p1370
g2
((lp1371
S'IPR029039'
p1372
aS'IPR008254'
p1373
aS'IPR026816'
p1374
aS'IPR001226'
p1375
atp1376
Rp1377
sS'Q9Y3Y2'
p1378
g2
((lp1379
S'IPR025715'
p1380
atp1381
Rp1382
sS'Q9M1X0'
p1383
g2
((lp1384
S'IPR036191'
p1385
aS'IPR002661'
p1386
aS'IPR023584'
p1387
atp1388
Rp1389
sS'Q9BPZ3'
p1390
g2
((lp1391
S'IPR009818'
p1392
atp1393
Rp1394
sS'Q9V3E3'
p1395
g2
((lp1396
S'IPR018305'
p1397
atp1398
Rp1399
sS'Q96Q83'
p1400
g2
((lp1401
S'IPR037151'
p1402
aS'IPR005123'
p1403
aS'IPR027450'
p1404
atp1405
Rp1406
sS'Q03393'
p1407
g2
((lp1408
S'IPR022469'
p1409
aS'IPR007115'
p1410
aS'IPR022470'
p1411
atp1412
Rp1413
sS'Q9T010'
p1414
g2
((lp1415
S'IPR036457'
p1416
aS'IPR001932'
p1417
atp1418
Rp1419
sS'P84817'
p1420
g2
((lp1421
S'IPR016543'
p1422
aS'IPR028058'
p1423
aS'IPR033745'
p1424
aS'IPR011990'
p1425
aS'IPR028061'
p1426
atp1427
Rp1428
sS'O60828'
p1429
g2
((lp1430
S'IPR001202'
p1431
aS'IPR036020'
p1432
atp1433
Rp1434
sS'P33316'
p1435
g2
((lp1436
S'IPR029054'
p1437
aS'IPR008181'
p1438
aS'IPR033704'
p1439
aS'IPR036157'
p1440
atp1441
Rp1442
sS'Q9I063'
p1443
g2
((lp1444
S'IPR010982'
p1445
aS'IPR001387'
p1446
atp1447
Rp1448
sS'Q9LZP9'
p1449
g2
((lp1450
S'IPR003823'
p1451
atp1452
Rp1453
sS'P62888'
p1454
g2
((lp1455
S'IPR000231'
p1456
aS'IPR029064'
p1457
aS'IPR004038'
p1458
aS'IPR022991'
p1459
atp1460
Rp1461
sS'P42814'
p1462
g2
((lp1463
S'IPR033130'
p1464
aS'IPR036430'
p1465
aS'IPR018188'
p1466
aS'IPR001568'
p1467
aS'IPR033697'
p1468
atp1469
Rp1470
sS'Q9VVS4'
p1471
g2
((lp1472
S'IPR019404'
p1473
atp1474
Rp1475
sS'P26644'
p1476
g2
((lp1477
S'IPR035976'
p1478
aS'IPR000436'
p1479
aS'IPR015104'
p1480
atp1481
Rp1482
sS'P03973'
p1483
g2
((lp1484
S'IPR008197'
p1485
aS'IPR036645'
p1486
atp1487
Rp1488
sS'O75365'
p1489
g2
((lp1490
S'IPR029021'
p1491
aS'IPR003595'
p1492
aS'IPR000340'
p1493
aS'IPR000387'
p1494
atp1495
Rp1496
sS'Q26365'
p1497
g2
((lp1498
S'IPR002067'
p1499
aS'IPR018108'
p1500
aS'IPR023395'
p1501
aS'IPR002113'
p1502
atp1503
Rp1504
sS'Q9QYC3'
p1505
g2
((lp1506
S'IPR011598'
p1507
aS'IPR036638'
p1508
atp1509
Rp1510
sS'P21145'
p1511
g2
((lp1512
S'IPR008253'
p1513
aS'IPR013295'
p1514
atp1515
Rp1516
sS'Q9BU76'
p1517
g2
((lp1518
S'IPR019315'
p1519
atp1520
Rp1521
sS'Q6P050'
p1522
g2
((lp1523
S'IPR036047'
p1524
aS'IPR001810'
p1525
atp1526
Rp1527
sS'Q9ZQI2'
p1528
g2
((lp1529
S'IPR006702'
p1530
aS'IPR006459'
p1531
atp1532
Rp1533
sS'O14467'
p1534
g2
((lp1535
S'IPR010982'
p1536
aS'IPR001387'
p1537
aS'IPR013729'
p1538
atp1539
Rp1540
sS'Q8NE22'
p1541
g2
((lp1542
S'IPR001214'
p1543
atp1544
Rp1545
sS'P62306'
p1546
g2
((lp1547
S'IPR010920'
p1548
aS'IPR016487'
p1549
aS'IPR034100'
p1550
aS'IPR001163'
p1551
atp1552
Rp1553
sS'P0CX26'
p1554
g2
((lp1555
S'IPR011332'
p1556
aS'IPR011331'
p1557
aS'IPR002674'
p1558
atp1559
Rp1560
sS'Q96EY8'
p1561
g2
((lp1562
S'IPR016030'
p1563
aS'IPR036451'
p1564
aS'IPR029499'
p1565
atp1566
Rp1567
sS'P18859'
p1568
g2
((lp1569
S'IPR036204'
p1570
aS'IPR008387'
p1571
atp1572
Rp1573
sS'Q8TCT1'
p1574
g2
((lp1575
S'IPR023214'
p1576
aS'IPR036412'
p1577
aS'IPR016965'
p1578
aS'IPR006384'
p1579
atp1580
Rp1581
sS'Q9LU05'
p1582
g2
((lp1583
S'IPR008469'
p1584
atp1585
Rp1586
sS'P0CY11'
p1587
g2
((lp1588
S'IPR009057'
p1589
aS'IPR017970'
p1590
aS'IPR001356'
p1591
atp1592
Rp1593
sS'Q9M3D2'
p1594
g2
((lp1595
S'IPR001854'
p1596
aS'IPR018254'
p1597
aS'IPR036049'
p1598
atp1599
Rp1600
sS'Q9V4S8'
p1601
g2
((lp1602
S'IPR000717'
p1603
atp1604
Rp1605
sS'P0CX29'
p1606
g2
((lp1607
S'IPR012340'
p1608
aS'IPR005680'
p1609
aS'IPR006032'
p1610
atp1611
Rp1612
sS'Q9Y2R9'
p1613
g2
((lp1614
S'IPR000235'
p1615
aS'IPR023798'
p1616
aS'IPR036823'
p1617
atp1618
Rp1619
sS'Q91VS7'
p1620
g2
((lp1621
S'IPR001129'
p1622
aS'IPR023352'
p1623
atp1624
Rp1625
sS'P28319'
p1626
g2
((lp1627
S'IPR000420'
p1628
atp1629
Rp1630
sS'P61353'
p1631
g2
((lp1632
S'IPR014722'
p1633
aS'IPR018262'
p1634
aS'IPR008991'
p1635
aS'IPR001141'
p1636
aS'IPR005824'
p1637
atp1638
Rp1639
sS'P62847'
p1640
g2
((lp1641
S'IPR012678'
p1642
aS'IPR001976'
p1643
aS'IPR018098'
p1644
atp1645
Rp1646
sS'Q0WRJ7'
p1647
g2
((lp1648
S'IPR001179'
p1649
atp1650
Rp1651
sS'Q9JI61'
p1652
g2
((lp1653
S'IPR007053'
p1654
atp1655
Rp1656
sS'P00572'
p1657
g2
((lp1658
S'IPR018094'
p1659
aS'IPR018095'
p1660
aS'IPR027417'
p1661
atp1662
Rp1663
sS'O23299'
p1664
g2
((lp1665
S'IPR001753'
p1666
aS'IPR029045'
p1667
atp1668
Rp1669
sS'Q9JJ74'
p1670
g2
((lp1671
S'IPR006985'
p1672
atp1673
Rp1674
sS'Q6INX3'
p1675
g2
((lp1676
S'IPR021720'
p1677
atp1678
Rp1679
sS'P15880'
p1680
g2
((lp1681
S'IPR005324'
p1682
aS'IPR014721'
p1683
aS'IPR005711'
p1684
aS'IPR018192'
p1685
aS'IPR020568'
p1686
aS'IPR013810'
p1687
atp1688
Rp1689
sS'Q9Y4U1'
p1690
g2
((lp1691
S'IPR032037'
p1692
atp1693
Rp1694
sS'Q96F10'
p1695
g2
((lp1696
S'IPR016181'
p1697
aS'IPR000182'
p1698
atp1699
Rp1700
sS'Q9LJL6'
p1701
g2
((lp1702
S'IPR001841'
p1703
aS'IPR013083'
p1704
atp1705
Rp1706
sS'Q9H596'
p1707
g2
((lp1708
S'IPR016130'
p1709
aS'IPR000340'
p1710
aS'IPR029021'
p1711
aS'IPR020417'
p1712
aS'IPR000387'
p1713
aS'IPR020422'
p1714
aS'IPR020420'
p1715
atp1716
Rp1717
sS'P97440'
p1718
g2
((lp1719
S'IPR029344'
p1720
atp1721
Rp1722
sS'P42586'
p1723
g2
((lp1724
S'IPR020479'
p1725
aS'IPR009057'
p1726
aS'IPR017970'
p1727
aS'IPR001356'
p1728
atp1729
Rp1730
sS'Q9SU35'
p1731
g2
((lp1732
S'IPR016140'
p1733
aS'IPR027923'
p1734
aS'IPR036312'
p1735
atp1736
Rp1737
sS'P18200'
p1738
g2
((lp1739
S'IPR026037'
p1740
aS'IPR007686'
p1741
aS'IPR036681'
p1742
atp1743
Rp1744
sS'O95843'
p1745
g2
((lp1746
S'IPR002048'
p1747
aS'IPR018247'
p1748
aS'IPR011992'
p1749
atp1750
Rp1751
sS'P60022'
p1752
g2
((lp1753
S'IPR001855'
p1754
atp1755
Rp1756
sS'O95848'
p1757
g2
((lp1758
S'IPR004385'
p1759
aS'IPR000086'
p1760
aS'IPR015797'
p1761
atp1762
Rp1763
sS'P05194'
p1764
g2
((lp1765
S'IPR001381'
p1766
aS'IPR013785'
p1767
aS'IPR018508'
p1768
atp1769
Rp1770
sS'Q8IXQ9'
p1771
g2
((lp1772
S'IPR029063'
p1773
atp1774
Rp1775
sS'P09813'
p1776
g2
((lp1777
S'IPR036172'
p1778
aS'IPR006801'
p1779
atp1780
Rp1781
sS'P54368'
p1782
g2
((lp1783
S'IPR016181'
p1784
aS'IPR002993'
p1785
atp1786
Rp1787
sS'P04823'
p1788
g2
((lp1789
S'IPR002183'
p1790
aS'IPR009079'
p1791
atp1792
Rp1793
sS'Q01658'
p1794
g2
((lp1795
S'IPR003958'
p1796
aS'IPR009072'
p1797
atp1798
Rp1799
sS'Q9SEU6'
p1800
g2
((lp1801
S'IPR005746'
p1802
aS'IPR017937'
p1803
aS'IPR036249'
p1804
aS'IPR013766'
p1805
atp1806
Rp1807
sS'Q9FV53'
p1808
g2
((lp1809
S'IPR036821'
p1810
aS'IPR023635'
p1811
atp1812
Rp1813
sS'Q9NYG2'
p1814
g2
((lp1815
S'IPR001594'
p1816
atp1817
Rp1818
sS'Q01718'
p1819
g2
((lp1820
S'IPR017452'
p1821
aS'IPR000276'
p1822
aS'IPR001168'
p1823
aS'IPR001671'
p1824
atp1825
Rp1826
sS'Q86W50'
p1827
g2
((lp1828
S'IPR017182'
p1829
aS'IPR029063'
p1830
aS'IPR010286'
p1831
atp1832
Rp1833
sS'Q8W1E3'
p1834
g2
((lp1835
S'IPR003851'
p1836
atp1837
Rp1838
sS'Q66GT5'
p1839
g2
((lp1840
S'IPR029021'
p1841
aS'IPR016130'
p1842
aS'IPR020422'
p1843
aS'IPR000340'
p1844
aS'IPR000387'
p1845
atp1846
Rp1847
sS'Q9BY32'
p1848
g2
((lp1849
S'IPR027502'
p1850
aS'IPR002637'
p1851
aS'IPR029001'
p1852
atp1853
Rp1854
sS'P28676'
p1855
g2
((lp1856
S'IPR011992'
p1857
aS'IPR018247'
p1858
aS'IPR002048'
p1859
atp1860
Rp1861
sS'Q941L2'
p1862
g2
((lp1863
S'IPR000008'
p1864
aS'IPR035892'
p1865
atp1866
Rp1867
sS'P28778'
p1868
g2
((lp1869
S'IPR000529'
p1870
aS'IPR014717'
p1871
aS'IPR035980'
p1872
atp1873
Rp1874
sS'P53068'
p1875
g2
((lp1876
S'IPR016901'
p1877
aS'IPR004939'
p1878
aS'IPR008979'
p1879
atp1880
Rp1881
sS'P32495'
p1882
g2
((lp1883
S'IPR029064'
p1884
aS'IPR018492'
p1885
aS'IPR004038'
p1886
aS'IPR004037'
p1887
aS'IPR002415'
p1888
atp1889
Rp1890
sS'P40975'
p1891
g2
((lp1892
S'IPR012589'
p1893
atp1894
Rp1895
sS'Q9NZZ3'
p1896
g2
((lp1897
S'IPR005024'
p1898
atp1899
Rp1900
sS'O60725'
p1901
g2
((lp1902
S'IPR025770'
p1903
aS'IPR007269'
p1904
atp1905
Rp1906
sS'Q9SZN7'
p1907
g2
((lp1908
S'IPR006121'
p1909
aS'IPR036163'
p1910
atp1911
Rp1912
sS'Q9UBS3'
p1913
g2
((lp1914
S'IPR036869'
p1915
aS'IPR001623'
p1916
aS'IPR018253'
p1917
atp1918
Rp1919
sS'O75461'
p1920
g2
((lp1921
S'IPR036388'
p1922
aS'IPR036390'
p1923
aS'IPR037241'
p1924
aS'IPR032198'
p1925
aS'IPR003316'
p1926
atp1927
Rp1928
sS'P49776'
p1929
g2
((lp1930
S'IPR001310'
p1931
aS'IPR019808'
p1932
aS'IPR036265'
p1933
aS'IPR011146'
p1934
atp1935
Rp1936
sS'P0A9K7'
p1937
g2
((lp1938
S'IPR026022'
p1939
aS'IPR028366'
p1940
atp1941
Rp1942
sS'Q6IB77'
p1943
g2
((lp1944
S'IPR015938'
p1945
aS'IPR013652'
p1946
aS'IPR016181'
p1947
atp1948
Rp1949
sS'O70460'
p1950
g2
((lp1951
S'IPR001811'
p1952
aS'IPR000827'
p1953
aS'IPR034133'
p1954
aS'IPR036048'
p1955
atp1956
Rp1957
sS'P62993'
p1958
g2
((lp1959
S'IPR036028'
p1960
aS'IPR000980'
p1961
aS'IPR035641'
p1962
aS'IPR035643'
p1963
aS'IPR001452'
p1964
aS'IPR036860'
p1965
atp1966
Rp1967
sS'Q9UTC6'
p1968
g2
((lp1969
S'IPR011339'
p1970
aS'IPR002871'
p1971
atp1972
Rp1973
sS'Q9VKK5'
p1974
g2
((lp1975
S'IPR020161'
p1976
atp1977
Rp1978
sS'P14306'
p1979
g2
((lp1980
S'IPR008914'
p1981
aS'IPR036610'
p1982
aS'IPR001858'
p1983
aS'IPR035810'
p1984
atp1985
Rp1986
sS'P00804'
p1987
g2
((lp1988
S'IPR001872'
p1989
atp1990
Rp1991
sS'Q9P0P0'
p1992
g2
((lp1993
S'IPR001841'
p1994
aS'IPR013083'
p1995
atp1996
Rp1997
sS'Q9ZVF3'
p1998
g2
((lp1999
S'IPR000916'
p2000
aS'IPR023393'
p2001
atp2002
Rp2003
sS'Q9VN10'
p2004
g2
((lp2005
S'IPR013087'
p2006
aS'IPR013083'
p2007
aS'IPR036236'
p2008
atp2009
Rp2010
sS'P0A948'
p2011
g2
((lp2012
S'IPR000182'
p2013
aS'IPR016181'
p2014
atp2015
Rp2016
sS'P76773'
p2017
g2
((lp2018
S'IPR009331'
p2019
atp2020
Rp2021
sS'P92204'
p2022
g2
((lp2023
S'IPR034637'
p2024
aS'IPR000504'
p2025
aS'IPR035979'
p2026
atp2027
Rp2028
sS'O75865'
p2029
g2
((lp2030
S'IPR007194'
p2031
aS'IPR024096'
p2032
atp2033
Rp2034
sS'Q7M729'
p2035
g2
((lp2036
S'IPR003599'
p2037
aS'IPR007110'
p2038
aS'IPR036179'
p2039
aS'IPR013106'
p2040
aS'IPR013783'
p2041
aS'IPR021157'
p2042
atp2043
Rp2044
sS'Q9BQ15'
p2045
g2
((lp2046
S'IPR004365'
p2047
aS'IPR012340'
p2048
atp2049
Rp2050
sS'Q9ZPV8'
p2051
g2
((lp2052
S'IPR014729'
p2053
aS'IPR004821'
p2054
atp2055
Rp2056
sS'P41271'
p2057
g2
((lp2058
S'IPR004133'
p2059
aS'IPR016728'
p2060
aS'IPR029034'
p2061
aS'IPR006207'
p2062
atp2063
Rp2064
sS'P12034'
p2065
g2
((lp2066
S'IPR008996'
p2067
aS'IPR002209'
p2068
atp2069
Rp2070
sS'Q86XR7'
p2071
g2
((lp2072
S'IPR035897'
p2073
aS'IPR000157'
p2074
atp2075
Rp2076
sS'P16860'
p2077
g2
((lp2078
S'IPR000663'
p2079
aS'IPR002408'
p2080
aS'IPR030480'
p2081
atp2082
Rp2083
sS'A2ANU3'
p2084
g2
((lp2085
S'IPR007593'
p2086
atp2087
Rp2088
sS'P25638'
p2089
g2
((lp2090
S'IPR013026'
p2091
aS'IPR019734'
p2092
aS'IPR011990'
p2093
atp2094
Rp2095
sS'P16181'
p2096
g2
((lp2097
S'IPR000266'
p2098
aS'IPR019979'
p2099
aS'IPR012340'
p2100
aS'IPR028333'
p2101
aS'IPR032440'
p2102
atp2103
Rp2104
sS'Q8TBE9'
p2105
g2
((lp2106
S'IPR023214'
p2107
aS'IPR006439'
p2108
aS'IPR011950'
p2109
aS'IPR036412'
p2110
atp2111
Rp2112
sS'Q13868'
p2113
g2
((lp2114
S'IPR012340'
p2115
aS'IPR036612'
p2116
aS'IPR004088'
p2117
aS'IPR025721'
p2118
atp2119
Rp2120
sS'Q9H008'
p2121
g2
((lp2122
S'IPR023214'
p2123
aS'IPR006355'
p2124
aS'IPR036412'
p2125
aS'IPR006357'
p2126
atp2127
Rp2128
sS'Q9C909'
p2129
g2
((lp2130
S'IPR000504'
p2131
aS'IPR035979'
p2132
atp2133
Rp2134
sS'Q5RKV6'
p2135
g2
((lp2136
S'IPR001247'
p2137
aS'IPR027408'
p2138
aS'IPR036345'
p2139
aS'IPR020568'
p2140
atp2141
Rp2142
sS'P07654'
p2143
g2
((lp2144
S'IPR005672'
p2145
aS'IPR035906'
p2146
aS'IPR000515'
p2147
atp2148
Rp2149
sS'Q8K4Z3'
p2150
g2
((lp2151
S'IPR036652'
p2152
aS'IPR004443'
p2153
atp2154
Rp2155
sS'P0A8T1'
p2156
g2
((lp2157
S'IPR004498'
p2158
aS'IPR029063'
p2159
atp2160
Rp2161
sS'P06702'
p2162
g2
((lp2163
S'IPR001751'
p2164
aS'IPR002048'
p2165
aS'IPR018247'
p2166
aS'IPR011992'
p2167
aS'IPR013787'
p2168
atp2169
Rp2170
sS'P32773'
p2171
g2
((lp2172
S'IPR009088'
p2173
aS'IPR009083'
p2174
aS'IPR004855'
p2175
atp2176
Rp2177
sS'P40548'
p2178
g2
((lp2179
S'IPR036533'
p2180
aS'IPR003103'
p2181
atp2182
Rp2183
sS'Q39233'
p2184
g2
((lp2185
S'IPR006012'
p2186
aS'IPR006011'
p2187
aS'IPR010989'
p2188
aS'IPR000727'
p2189
atp2190
Rp2191
sS'Q8L4B2'
p2192
g2
((lp2193
S'IPR003958'
p2194
aS'IPR009072'
p2195
atp2196
Rp2197
sS'Q9QXU9'
p2198
g2
((lp2199
S'IPR010832'
p2200
atp2201
Rp2202
sS'P51460'
p2203
g2
((lp2204
S'IPR036438'
p2205
aS'IPR016179'
p2206
aS'IPR022353'
p2207
atp2208
Rp2209
sS'A8WH76'
p2210
g2
((lp2211
S'IPR029162'
p2212
atp2213
Rp2214
sS'P01834'
p2215
g2
((lp2216
S'IPR007110'
p2217
aS'IPR036179'
p2218
aS'IPR013783'
p2219
aS'IPR003597'
p2220
aS'IPR003006'
p2221
atp2222
Rp2223
sS'P09430'
p2224
g2
((lp2225
S'IPR001319'
p2226
aS'IPR020062'
p2227
atp2228
Rp2229
sS'P15367'
p2230
g2
((lp2231
S'IPR001733'
p2232
aS'IPR019758'
p2233
aS'IPR015927'
p2234
aS'IPR019756'
p2235
aS'IPR036286'
p2236
atp2237
Rp2238
sS'Q14749'
p2239
g2
((lp2240
S'IPR014369'
p2241
aS'IPR029063'
p2242
atp2243
Rp2244
sS'Q7KMS3'
p2245
g2
((lp2246
S'IPR004942'
p2247
aS'IPR016561'
p2248
atp2249
Rp2250
sS'O95749'
p2251
g2
((lp2252
S'IPR033749'
p2253
aS'IPR000092'
p2254
aS'IPR008949'
p2255
atp2256
Rp2257
sS'Q9FZ42'
p2258
g2
((lp2259
S'IPR002347'
p2260
aS'IPR036291'
p2261
aS'IPR020904'
p2262
atp2263
Rp2264
sS'Q92535'
p2265
g2
((lp2266
S'IPR009450'
p2267
atp2268
Rp2269
sS'P43667'
p2270
g2
((lp2271
S'IPR008407'
p2272
atp2273
Rp2274
sS'P22139'
p2275
g2
((lp2276
S'IPR023580'
p2277
aS'IPR000268'
p2278
aS'IPR020789'
p2279
atp2280
Rp2281
sS'P00846'
p2282
g2
((lp2283
S'IPR023011'
p2284
aS'IPR000568'
p2285
aS'IPR035908'
p2286
atp2287
Rp2288
sS'Q9VCU6'
p2289
g2
((lp2290
S'IPR008251'
p2291
aS'IPR023780'
p2292
aS'IPR017984'
p2293
aS'IPR016197'
p2294
aS'IPR000953'
p2295
aS'IPR023779'
p2296
atp2297
Rp2298
sS'Q92530'
p2299
g2
((lp2300
S'IPR013886'
p2301
aS'IPR021625'
p2302
atp2303
Rp2304
sS'P23965'
p2305
g2
((lp2306
S'IPR001753'
p2307
aS'IPR018376'
p2308
aS'IPR029045'
p2309
atp2310
Rp2311
sS'Q8CCI5'
p2312
g2
((lp2313
S'IPR036443'
p2314
aS'IPR033774'
p2315
aS'IPR001876'
p2316
atp2317
Rp2318
sS'Q02223'
p2319
g2
((lp2320
S'IPR015337'
p2321
aS'IPR022320'
p2322
atp2323
Rp2324
sS'P48199'
p2325
g2
((lp2326
S'IPR001759'
p2327
aS'IPR013320'
p2328
aS'IPR030476'
p2329
atp2330
Rp2331
sS'Q96PD4'
p2332
g2
((lp2333
S'IPR020440'
p2334
aS'IPR010345'
p2335
aS'IPR029034'
p2336
atp2337
Rp2338
sS'Q14773'
p2339
g2
((lp2340
S'IPR003987'
p2341
aS'IPR036179'
p2342
aS'IPR013768'
p2343
aS'IPR013783'
p2344
atp2345
Rp2346
sS'Q9GZZ7'
p2347
g2
((lp2348
S'IPR037193'
p2349
aS'IPR003438'
p2350
aS'IPR016017'
p2351
atp2352
Rp2353
sS'Q9LDE4'
p2354
g2
((lp2355
S'IPR036955'
p2356
aS'IPR001471'
p2357
aS'IPR016177'
p2358
atp2359
Rp2360
sS'Q7Z4H4'
p2361
g2
((lp2362
S'IPR021116'
p2363
atp2364
Rp2365
sS'Q12241'
p2366
g2
((lp2367
S'IPR006012'
p2368
aS'IPR006011'
p2369
aS'IPR010989'
p2370
aS'IPR000727'
p2371
atp2372
Rp2373
sS'Q8LGU7'
p2374
g2
((lp2375
S'IPR001279'
p2376
aS'IPR036866'
p2377
atp2378
Rp2379
sS'Q9H6Z9'
p2380
g2
((lp2381
S'IPR006620'
p2382
aS'IPR005123'
p2383
atp2384
Rp2385
sS'Q9HTI7'
p2386
g2
((lp2387
S'IPR017784'
p2388
aS'IPR000515'
p2389
aS'IPR035906'
p2390
atp2391
Rp2392
sS'Q9C5Q2'
p2393
g2
((lp2394
S'IPR004827'
p2395
atp2396
Rp2397
sS'O43291'
p2398
g2
((lp2399
S'IPR020901'
p2400
aS'IPR002223'
p2401
aS'IPR036880'
p2402
atp2403
Rp2404
sS'Q06596'
p2405
g2
((lp2406
S'IPR023167'
p2407
atp2408
Rp2409
sS'P37802'
p2410
g2
((lp2411
S'IPR036872'
p2412
aS'IPR001715'
p2413
aS'IPR000557'
p2414
aS'IPR003096'
p2415
atp2416
Rp2417
sS'O65683'
p2418
g2
((lp2419
S'IPR004827'
p2420
atp2421
Rp2422
sS'O64425'
p2423
g2
((lp2424
S'IPR017907'
p2425
aS'IPR001841'
p2426
aS'IPR013083'
p2427
atp2428
Rp2429
sS'Q12522'
p2430
g2
((lp2431
S'IPR002769'
p2432
atp2433
Rp2434
sS'Q9NVJ2'
p2435
g2
((lp2436
S'IPR005225'
p2437
aS'IPR006689'
p2438
aS'IPR024156'
p2439
aS'IPR027417'
p2440
atp2441
Rp2442
sS'P48353'
p2443
g2
((lp2444
S'IPR036869'
p2445
aS'IPR001623'
p2446
aS'IPR018253'
p2447
atp2448
Rp2449
sS'O96007'
p2450
g2
((lp2451
S'IPR028888'
p2452
aS'IPR036563'
p2453
aS'IPR003448'
p2454
atp2455
Rp2456
sS'Q9P7J2'
p2457
g2
((lp2458
S'IPR009089'
p2459
aS'IPR015381'
p2460
atp2461
Rp2462
sS'P49957'
p2463
g2
((lp2464
S'IPR013216'
p2465
aS'IPR029063'
p2466
atp2467
Rp2468
sS'P03882'
p2469
g2
((lp2470
S'IPR004860'
p2471
aS'IPR027434'
p2472
atp2473
Rp2474
sS'P39405'
p2475
g2
((lp2476
S'IPR022770'
p2477
aS'IPR008090'
p2478
aS'IPR024726'
p2479
atp2480
Rp2481
sS'Q8TED1'
p2482
g2
((lp2483
S'IPR000889'
p2484
aS'IPR036249'
p2485
aS'IPR013376'
p2486
aS'IPR029760'
p2487
atp2488
Rp2489
sS'O82768'
p2490
g2
((lp2491
S'IPR023019'
p2492
aS'IPR021130'
p2493
aS'IPR008179'
p2494
aS'IPR002496'
p2495
atp2496
Rp2497
sS'O75324'
p2498
g2
((lp2499
S'IPR015135'
p2500
aS'IPR015136'
p2501
aS'IPR015137'
p2502
atp2503
Rp2504
sS'Q12517'
p2505
g2
((lp2506
S'IPR011993'
p2507
aS'IPR010334'
p2508
atp2509
Rp2510
sS'O43617'
p2511
g2
((lp2512
S'IPR016721'
p2513
aS'IPR007194'
p2514
aS'IPR024096'
p2515
atp2516
Rp2517
sS'P0A832'
p2518
g2
((lp2519
S'IPR000037'
p2520
aS'IPR020081'
p2521
aS'IPR023620'
p2522
atp2523
Rp2524
sS'Q9CAF2'
p2525
g2
((lp2526
S'IPR020084'
p2527
aS'IPR022927'
p2528
aS'IPR015797'
p2529
aS'IPR000086'
p2530
aS'IPR020476'
p2531
atp2532
Rp2533
sS'Q9Y1B2'
p2534
g2
((lp2535
S'IPR020529'
p2536
aS'IPR008721'
p2537
atp2538
Rp2539
sS'Q93V66'
p2540
g2
((lp2541
S'IPR005349'
p2542
atp2543
Rp2544
sS'P62963'
p2545
g2
((lp2546
S'IPR005454'
p2547
aS'IPR005455'
p2548
aS'IPR027310'
p2549
aS'IPR036140'
p2550
atp2551
Rp2552
sS'Q04338'
p2553
g2
((lp2554
S'IPR007705'
p2555
aS'IPR027027'
p2556
aS'IPR010989'
p2557
aS'IPR000727'
p2558
atp2559
Rp2560
sS'P0AAT6'
p2561
g2
((lp2562
S'IPR004394'
p2563
atp2564
Rp2565
sS'P31399'
p2566
g2
((lp2567
S'IPR008689'
p2568
aS'IPR036228'
p2569
atp2570
Rp2571
sS'P02655'
p2572
g2
((lp2573
S'IPR008019'
p2574
atp2575
Rp2576
sS'O42666'
p2577
g2
((lp2578
S'IPR000866'
p2579
aS'IPR036249'
p2580
atp2581
Rp2582
sS'P32800'
p2583
g2
((lp2584
S'IPR006845'
p2585
atp2586
Rp2587
sS'Q9BVM4'
p2588
g2
((lp2589
S'IPR013024'
p2590
aS'IPR036568'
p2591
aS'IPR009288'
p2592
atp2593
Rp2594
sS'Q8N2K1'
p2595
g2
((lp2596
S'IPR000608'
p2597
aS'IPR016135'
p2598
atp2599
Rp2600
sS'P35179'
p2601
g2
((lp2602
S'IPR008158'
p2603
aS'IPR001901'
p2604
aS'IPR022943'
p2605
aS'IPR023391'
p2606
atp2607
Rp2608
sS'Q9UBK5'
p2609
g2
((lp2610
S'IPR009861'
p2611
atp2612
Rp2613
sS'P27900'
p2614
g2
((lp2615
S'IPR009057'
p2616
aS'IPR001005'
p2617
aS'IPR017930'
p2618
atp2619
Rp2620
sS'Q99LJ8'
p2621
g2
((lp2622
S'IPR001441'
p2623
aS'IPR036424'
p2624
atp2625
Rp2626
sS'O15243'
p2627
g2
((lp2628
S'IPR007262'
p2629
atp2630
Rp2631
sS'Q8K3W2'
p2632
g2
((lp2633
S'IPR003591'
p2634
aS'IPR001611'
p2635
aS'IPR032675'
p2636
atp2637
Rp2638
sS'Q99MB3'
p2639
g2
((lp2640
S'IPR007829'
p2641
atp2642
Rp2643
sS'Q9GQR5'
p2644
g2
((lp2645
S'IPR036002'
p2646
aS'IPR000956'
p2647
atp2648
Rp2649
sS'P04903'
p2650
g2
((lp2651
S'IPR036249'
p2652
aS'IPR003080'
p2653
aS'IPR036282'
p2654
aS'IPR004046'
p2655
aS'IPR004045'
p2656
aS'IPR010987'
p2657
atp2658
Rp2659
sS'O08807'
p2660
g2
((lp2661
S'IPR036249'
p2662
aS'IPR000866'
p2663
aS'IPR019479'
p2664
aS'IPR024706'
p2665
aS'IPR013766'
p2666
atp2667
Rp2668
sS'Q13268'
p2669
g2
((lp2670
S'IPR002347'
p2671
aS'IPR036291'
p2672
aS'IPR020904'
p2673
atp2674
Rp2675
sS'Q9P0L0'
p2676
g2
((lp2677
S'IPR013783'
p2678
aS'IPR008962'
p2679
aS'IPR016763'
p2680
aS'IPR000535'
p2681
atp2682
Rp2683
sS'Q9VD83'
p2684
g2
((lp2685
S'IPR004133'
p2686
aS'IPR029034'
p2687
aS'IPR006207'
p2688
atp2689
Rp2690
sS'Q969T7'
p2691
g2
((lp2692
S'IPR023214'
p2693
aS'IPR036412'
p2694
aS'IPR006434'
p2695
atp2696
Rp2697
sS'Q969T4'
p2698
g2
((lp2699
S'IPR016135'
p2700
aS'IPR023313'
p2701
aS'IPR000608'
p2702
atp2703
Rp2704
sS'Q9ERS2'
p2705
g2
((lp2706
S'IPR009346'
p2707
atp2708
Rp2709
sS'P70284'
p2710
g2
((lp2711
S'IPR009057'
p2712
aS'IPR001356'
p2713
aS'IPR008422'
p2714
atp2715
Rp2716
sS'P61289'
p2717
g2
((lp2718
S'IPR003186'
p2719
aS'IPR003185'
p2720
aS'IPR036252'
p2721
aS'IPR036997'
p2722
aS'IPR036996'
p2723
atp2724
Rp2725
sS'Q9FNQ2'
p2726
g2
((lp2727
S'IPR012946'
p2728
atp2729
Rp2730
sS'P39707'
p2731
g2
((lp2732
S'IPR016690'
p2733
aS'IPR036167'
p2734
aS'IPR006677'
p2735
aS'IPR006676'
p2736
atp2737
Rp2738
sS'O60356'
p2739
g2
((lp2740
S'IPR018792'
p2741
atp2742
Rp2743
sS'Q42347'
p2744
g2
((lp2745
S'IPR000988'
p2746
aS'IPR023442'
p2747
aS'IPR011017'
p2748
atp2749
Rp2750
sS'P02625'
p2751
g2
((lp2752
S'IPR011992'
p2753
aS'IPR018247'
p2754
aS'IPR002048'
p2755
atp2756
Rp2757
sS'Q9BZM5'
p2758
g2
((lp2759
S'IPR037055'
p2760
aS'IPR011162'
p2761
aS'IPR011161'
p2762
atp2763
Rp2764
sS'P08635'
p2765
g2
((lp2766
S'IPR001031'
p2767
aS'IPR029058'
p2768
atp2769
Rp2770
sS'Q15185'
p2771
g2
((lp2772
S'IPR007052'
p2773
aS'IPR008978'
p2774
atp2775
Rp2776
sS'P01135'
p2777
g2
((lp2778
S'IPR013032'
p2779
aS'IPR000742'
p2780
atp2781
Rp2782
sS'P21964'
p2783
g2
((lp2784
S'IPR017128'
p2785
aS'IPR029063'
p2786
aS'IPR002935'
p2787
atp2788
Rp2789
sS'Q9H902'
p2790
g2
((lp2791
S'IPR004345'
p2792
atp2793
Rp2794
sS'Q9LVC9'
p2795
g2
((lp2796
S'IPR027534'
p2797
atp2798
Rp2799
sS'P35731'
p2800
g2
((lp2801
S'IPR002347'
p2802
aS'IPR036291'
p2803
aS'IPR020904'
p2804
atp2805
Rp2806
sS'Q53H96'
p2807
g2
((lp2808
S'IPR028939'
p2809
aS'IPR008927'
p2810
aS'IPR036291'
p2811
aS'IPR029036'
p2812
aS'IPR000304'
p2813
atp2814
Rp2815
sS'P36954'
p2816
g2
((lp2817
S'IPR019761'
p2818
aS'IPR001529'
p2819
aS'IPR034012'
p2820
aS'IPR012164'
p2821
aS'IPR001222'
p2822
atp2823
Rp2824
sS'P52003'
p2825
g2
((lp2826
S'IPR036388'
p2827
aS'IPR000835'
p2828
aS'IPR036390'
p2829
atp2830
Rp2831
sS'P40056'
p2832
g2
((lp2833
S'IPR014802'
p2834
aS'IPR028143'
p2835
atp2836
Rp2837
sS'P05387'
p2838
g2
((lp2839
S'IPR027534'
p2840
atp2841
Rp2842
sS'O15444'
p2843
g2
((lp2844
S'IPR001811'
p2845
aS'IPR034133'
p2846
aS'IPR036048'
p2847
atp2848
Rp2849
sS'Q08285'
p2850
g2
((lp2851
S'IPR037319'
p2852
aS'IPR012340'
p2853
aS'IPR036612'
p2854
aS'IPR004088'
p2855
atp2856
Rp2857
sS'P22610'
p2858
g2
((lp2859
S'IPR014032'
p2860
aS'IPR000045'
p2861
aS'IPR010627'
p2862
atp2863
Rp2864
sS'Q94CE4'
p2865
g2
((lp2866
S'IPR001765'
p2867
aS'IPR036874'
p2868
aS'IPR015892'
p2869
atp2870
Rp2871
sS'P17695'
p2872
g2
((lp2873
S'IPR002109'
p2874
aS'IPR036249'
p2875
aS'IPR011899'
p2876
aS'IPR014025'
p2877
aS'IPR011767'
p2878
atp2879
Rp2880
sS'P08700'
p2881
g2
((lp2882
S'IPR002183'
p2883
aS'IPR009079'
p2884
atp2885
Rp2886
sS'P13232'
p2887
g2
((lp2888
S'IPR001181'
p2889
aS'IPR000226'
p2890
aS'IPR018049'
p2891
atp2892
Rp2893
sS'P36553'
p2894
g2
((lp2895
S'IPR018375'
p2896
aS'IPR036406'
p2897
aS'IPR001260'
p2898
atp2899
Rp2900
sS'Q9NYP7'
p2901
g2
((lp2902
S'IPR033677'
p2903
aS'IPR002076'
p2904
atp2905
Rp2906
sS'P63211'
p2907
g2
((lp2908
S'IPR001770'
p2909
aS'IPR036284'
p2910
aS'IPR015898'
p2911
atp2912
Rp2913
sS'O43927'
p2914
g2
((lp2915
S'IPR001089'
p2916
aS'IPR001811'
p2917
aS'IPR018048'
p2918
aS'IPR033899'
p2919
aS'IPR036048'
p2920
atp2921
Rp2922
sS'P81605'
p2923
g2
((lp2924
S'IPR028130'
p2925
atp2926
Rp2927
sS'P02753'
p2928
g2
((lp2929
S'IPR002345'
p2930
aS'IPR002449'
p2931
aS'IPR000566'
p2932
aS'IPR022271'
p2933
aS'IPR012674'
p2934
aS'IPR022272'
p2935
atp2936
Rp2937
sS'P32854'
p2938
g2
((lp2939
S'IPR006012'
p2940
aS'IPR006011'
p2941
aS'IPR010989'
p2942
aS'IPR000727'
p2943
atp2944
Rp2945
sS'Q6PER3'
p2946
g2
((lp2947
S'IPR036872'
p2948
aS'IPR001715'
p2949
aS'IPR036133'
p2950
aS'IPR004953'
p2951
atp2952
Rp2953
sS'P29692'
p2954
g2
((lp2955
S'IPR014717'
p2956
aS'IPR014038'
p2957
aS'IPR036219'
p2958
aS'IPR018940'
p2959
aS'IPR001326'
p2960
atp2961
Rp2962
sS'Q9CQ45'
p2963
g2
((lp2964
S'IPR001199'
p2965
aS'IPR036400'
p2966
atp2967
Rp2968
sS'Q9CQF8'
p2969
g2
((lp2970
S'IPR016576'
p2971
atp2972
Rp2973
sS'P08034'
p2974
g2
((lp2975
S'IPR017990'
p2976
aS'IPR013092'
p2977
aS'IPR019570'
p2978
aS'IPR002267'
p2979
aS'IPR000500'
p2980
atp2981
Rp2982
sS'P40582'
p2983
g2
((lp2984
S'IPR036249'
p2985
aS'IPR036282'
p2986
aS'IPR004046'
p2987
aS'IPR010987'
p2988
aS'IPR004045'
p2989
atp2990
Rp2991
sS'Q06834'
p2992
g2
((lp2993
S'IPR011011'
p2994
aS'IPR001841'
p2995
aS'IPR013083'
p2996
aS'IPR019786'
p2997
atp2998
Rp2999
sS'Q9H3R5'
p3000
g2
((lp3001
S'IPR008426'
p3002
atp3003
Rp3004
sS'O46202'
p3005
g2
((lp3006
S'IPR002919'
p3007
aS'IPR036084'
p3008
atp3009
Rp3010
sS'O48782'
p3011
g2
((lp3012
S'IPR016951'
p3013
aS'IPR016053'
p3014
aS'IPR016084'
p3015
atp3016
Rp3017
sS'Q9WVA9'
p3018
g2
((lp3019
S'IPR008065'
p3020
atp3021
Rp3022
sS'Q9BQ83'
p3023
g2
((lp3024
S'IPR027520'
p3025
aS'IPR000305'
p3026
aS'IPR035901'
p3027
atp3028
Rp3029
sS'P0DI81'
p3030
g2
((lp3031
S'IPR011012'
p3032
aS'IPR006722'
p3033
atp3034
Rp3035
sS'P09036'
p3036
g2
((lp3037
S'IPR002350'
p3038
aS'IPR036058'
p3039
aS'IPR001239'
p3040
atp3041
Rp3042
sS'O75888'
p3043
g2
((lp3044
S'IPR008983'
p3045
aS'IPR021184'
p3046
aS'IPR006052'
p3047
atp3048
Rp3049
sS'P09038'
p3050
g2
((lp3051
S'IPR008996'
p3052
aS'IPR002209'
p3053
atp3054
Rp3055
sS'Q86BB4'
p3056
g2
((lp3057
S'IPR007707'
p3058
atp3059
Rp3060
sS'A1ZBK7'
p3061
g2
((lp3062
S'IPR013201'
p3063
atp3064
Rp3065
sS'P53733'
p3066
g2
((lp3067
S'IPR023575'
p3068
aS'IPR002222'
p3069
aS'IPR020934'
p3070
atp3071
Rp3072
sS'P40305'
p3073
g2
((lp3074
S'IPR009311'
p3075
atp3076
Rp3077
sS'Q13126'
p3078
g2
((lp3079
S'IPR000845'
p3080
aS'IPR035994'
p3081
aS'IPR018099'
p3082
aS'IPR010044'
p3083
atp3084
Rp3085
sS'P62072'
p3086
g2
((lp3087
S'IPR004217'
p3088
aS'IPR035427'
p3089
atp3090
Rp3091
sS'P0ABG1'
p3092
g2
((lp3093
S'IPR000374'
p3094
atp3095
Rp3096
sS'P42798'
p3097
g2
((lp3098
S'IPR035987'
p3099
aS'IPR000630'
p3100
atp3101
Rp3102
sS'O14880'
p3103
g2
((lp3104
S'IPR001129'
p3105
aS'IPR023352'
p3106
atp3107
Rp3108
sS'P21242'
p3109
g2
((lp3110
S'IPR029055'
p3111
aS'IPR000426'
p3112
aS'IPR023332'
p3113
aS'IPR001353'
p3114
atp3115
Rp3116
sS'P42794'
p3117
g2
((lp3118
S'IPR031309'
p3119
aS'IPR022803'
p3120
aS'IPR002132'
p3121
aS'IPR031310'
p3122
aS'IPR020929'
p3123
atp3124
Rp3125
sS'Q9JK38'
p3126
g2
((lp3127
S'IPR000182'
p3128
aS'IPR016181'
p3129
atp3130
Rp3131
sS'Q8LE52'
p3132
g2
((lp3133
S'IPR036282'
p3134
aS'IPR036249'
p3135
aS'IPR010987'
p3136
aS'IPR004045'
p3137
atp3138
Rp3139
sS'Q9FKA0'
p3140
g2
((lp3141
S'IPR003441'
p3142
aS'IPR036093'
p3143
atp3144
Rp3145
sS'Q9Y2Q9'
p3146
g2
((lp3147
S'IPR019375'
p3148
atp3149
Rp3150
sS'P11672'
p3151
g2
((lp3152
S'IPR003087'
p3153
aS'IPR002345'
p3154
aS'IPR000566'
p3155
aS'IPR012674'
p3156
aS'IPR022272'
p3157
atp3158
Rp3159
sS'P32897'
p3160
g2
((lp3161
S'IPR005681'
p3162
aS'IPR003397'
p3163
atp3164
Rp3165
sS'Q9ES30'
p3166
g2
((lp3167
S'IPR008983'
p3168
aS'IPR008160'
p3169
aS'IPR016133'
p3170
aS'IPR001073'
p3171
atp3172
Rp3173
sS'Q9XF91'
p3174
g2
((lp3175
S'IPR022796'
p3176
aS'IPR023329'
p3177
atp3178
Rp3179
sS'P00447'
p3180
g2
((lp3181
S'IPR001189'
p3182
aS'IPR019831'
p3183
aS'IPR019833'
p3184
aS'IPR019832'
p3185
aS'IPR036314'
p3186
aS'IPR036324'
p3187
atp3188
Rp3189
sS'P47977'
p3190
g2
((lp3191
S'IPR036855'
p3192
aS'IPR000571'
p3193
atp3194
Rp3195
sS'Q8WVD3'
p3196
g2
((lp3197
S'IPR008598'
p3198
aS'IPR034734'
p3199
aS'IPR001841'
p3200
aS'IPR013083'
p3201
atp3202
Rp3203
sS'P15374'
p3204
g2
((lp3205
S'IPR001578'
p3206
aS'IPR036959'
p3207
atp3208
Rp3209
sS'P64602'
p3210
g2
((lp3211
S'IPR036513'
p3212
aS'IPR002645'
p3213
atp3214
Rp3215
sS'P26275'
p3216
g2
((lp3217
S'IPR007492'
p3218
aS'IPR011006'
p3219
aS'IPR001789'
p3220
atp3221
Rp3222
sS'P60191'
p3223
g2
((lp3224
S'IPR000008'
p3225
aS'IPR035892'
p3226
atp3227
Rp3228
sS'O00230'
p3229
g2
((lp3230
S'IPR018142'
p3231
aS'IPR004250'
p3232
atp3233
Rp3234
sS'P42773'
p3235
g2
((lp3236
S'IPR036770'
p3237
aS'IPR002110'
p3238
aS'IPR020683'
p3239
atp3240
Rp3241
sS'P13231'
p3242
g2
((lp3243
S'IPR008999'
p3244
aS'IPR022768'
p3245
atp3246
Rp3247
sS'Q9XIB5'
p3248
g2
((lp3249
S'IPR003340'
p3250
aS'IPR015300'
p3251
atp3252
Rp3253
sS'Q6ZN17'
p3254
g2
((lp3255
S'IPR012340'
p3256
aS'IPR001878'
p3257
aS'IPR011129'
p3258
aS'IPR002059'
p3259
aS'IPR036875'
p3260
atp3261
Rp3262
sS'P27274'
p3263
g2
((lp3264
S'IPR016054'
p3265
aS'IPR018363'
p3266
atp3267
Rp3268
sS'P76249'
p3269
g2
((lp3270
S'IPR001123'
p3271
atp3272
Rp3273
sS'O14508'
p3274
g2
((lp3275
S'IPR001496'
p3276
aS'IPR036860'
p3277
aS'IPR035862'
p3278
aS'IPR000980'
p3279
aS'IPR036036'
p3280
atp3281
Rp3282
sS'P47992'
p3283
g2
((lp3284
S'IPR001811'
p3285
aS'IPR008105'
p3286
aS'IPR036048'
p3287
atp3288
Rp3289
sS'P55089'
p3290
g2
((lp3291
S'IPR000187'
p3292
aS'IPR018446'
p3293
aS'IPR003620'
p3294
atp3295
Rp3296
sS'Q9Y6Y9'
p3297
g2
((lp3298
S'IPR014756'
p3299
aS'IPR003172'
p3300
atp3301
Rp3302
sS'Q7JN06'
p3303
g2
((lp3304
S'IPR003656'
p3305
aS'IPR004210'
p3306
aS'IPR036236'
p3307
atp3308
Rp3309
sS'P27882'
p3310
g2
((lp3311
S'IPR036774'
p3312
aS'IPR017905'
p3313
atp3314
Rp3315
sS'Q9BRX8'
p3316
g2
((lp3317
S'IPR032801'
p3318
atp3319
Rp3320
sS'Q07813'
p3321
g2
((lp3322
S'IPR020728'
p3323
aS'IPR026298'
p3324
aS'IPR020717'
p3325
aS'IPR002475'
p3326
aS'IPR020726'
p3327
aS'IPR036834'
p3328
atp3329
Rp3330
sS'Q64124'
p3331
g2
((lp3332
S'IPR011598'
p3333
aS'IPR036638'
p3334
atp3335
Rp3336
sS'P40573'
p3337
g2
((lp3338
S'IPR004827'
p3339
atp3340
Rp3341
sS'P38429'
p3342
g2
((lp3343
S'IPR025718'
p3344
atp3345
Rp3346
sS'P38428'
p3347
g2
((lp3348
S'IPR003892'
p3349
atp3350
Rp3351
sS'Q04603'
p3352
g2
((lp3353
S'IPR009072'
p3354
atp3355
Rp3356
sS'P40574'
p3357
g2
((lp3358
S'IPR004827'
p3359
atp3360
Rp3361
sS'Q9UBY9'
p3362
g2
((lp3363
S'IPR001436'
p3364
aS'IPR008978'
p3365
aS'IPR002068'
p3366
atp3367
Rp3368
sS'Q9SZX9'
p3369
g2
((lp3370
S'IPR002359'
p3371
aS'IPR020040'
p3372
aS'IPR036789'
p3373
aS'IPR000702'
p3374
atp3375
Rp3376
sS'Q03067'
p3377
g2
((lp3378
S'IPR010919'
p3379
aS'IPR013246'
p3380
atp3381
Rp3382
sS'Q9WUF4'
p3383
g2
((lp3384
S'IPR001388'
p3385
aS'IPR016444'
p3386
atp3387
Rp3388
sS'P38336'
p3389
g2
((lp3390
S'IPR023534'
p3391
aS'IPR036980'
p3392
aS'IPR016848'
p3393
aS'IPR002730'
p3394
atp3395
Rp3396
sS'G3XCY4'
p3397
g2
((lp3398
S'IPR013321'
p3399
aS'IPR010985'
p3400
aS'IPR005569'
p3401
atp3402
Rp3403
sS'O60783'
p3404
g2
((lp3405
S'IPR001209'
p3406
atp3407
Rp3408
sS'O43657'
p3409
g2
((lp3410
S'IPR000301'
p3411
aS'IPR018499'
p3412
aS'IPR008952'
p3413
aS'IPR018503'
p3414
atp3415
Rp3416
sS'P69228'
p3417
g2
((lp3418
S'IPR036388'
p3419
aS'IPR011006'
p3420
aS'IPR001867'
p3421
aS'IPR016032'
p3422
aS'IPR001789'
p3423
atp3424
Rp3425
sS'O95407'
p3426
g2
((lp3427
S'IPR034023'
p3428
aS'IPR001368'
p3429
atp3430
Rp3431
sS'P57752'
p3432
g2
((lp3433
S'IPR035984'
p3434
aS'IPR000582'
p3435
aS'IPR014352'
p3436
atp3437
Rp3438
sS'Q14641'
p3439
g2
((lp3440
S'IPR023258'
p3441
aS'IPR022421'
p3442
atp3443
Rp3444
sS'Q9P015'
p3445
g2
((lp3446
S'IPR036227'
p3447
aS'IPR021131'
p3448
aS'IPR030878'
p3449
atp3450
Rp3451
sS'G3XCW6'
p3452
g2
((lp3453
S'IPR014710'
p3454
aS'IPR036388'
p3455
aS'IPR012318'
p3456
aS'IPR036390'
p3457
aS'IPR018490'
p3458
aS'IPR000595'
p3459
atp3460
Rp3461
sS'P54150'
p3462
g2
((lp3463
S'IPR002569'
p3464
aS'IPR036509'
p3465
atp3466
Rp3467
sS'Q9SSW2'
p3468
g2
((lp3469
S'IPR013087'
p3470
aS'IPR036236'
p3471
atp3472
Rp3473
sS'P31125'
p3474
g2
((lp3475
S'IPR000620'
p3476
atp3477
Rp3478
sS'Q9UBK9'
p3479
g2
((lp3480
S'IPR003994'
p3481
aS'IPR004127'
p3482
atp3483
Rp3484
sS'Q8H0X6'
p3485
g2
((lp3486
S'IPR000010'
p3487
aS'IPR018073'
p3488
atp3489
Rp3490
sS'Q6NQL6'
p3491
g2
((lp3492
S'IPR000326'
p3493
aS'IPR036938'
p3494
atp3495
Rp3496
sS'Q00994'
p3497
g2
((lp3498
S'IPR007623'
p3499
aS'IPR021156'
p3500
atp3501
Rp3502
sS'Q8WUW1'
p3503
g2
((lp3504
S'IPR033378'
p3505
atp3506
Rp3507
sS'Q9BV47'
p3508
g2
((lp3509
S'IPR016130'
p3510
aS'IPR000340'
p3511
aS'IPR029021'
p3512
aS'IPR020405'
p3513
aS'IPR020417'
p3514
aS'IPR000387'
p3515
aS'IPR020422'
p3516
atp3517
Rp3518
sS'Q02591'
p3519
g2
((lp3520
S'IPR009057'
p3521
aS'IPR017970'
p3522
aS'IPR001356'
p3523
atp3524
Rp3525
sS'Q9ZQH0'
p3526
g2
((lp3527
S'IPR001977'
p3528
aS'IPR027417'
p3529
atp3530
Rp3531
sS'Q04940'
p3532
g2
((lp3533
S'IPR000048'
p3534
atp3535
Rp3536
sS'Q59DY5'
p3537
g2
((lp3538
S'IPR016186'
p3539
aS'IPR001304'
p3540
aS'IPR016187'
p3541
atp3542
Rp3543
sS'Q9Y2Y0'
p3544
g2
((lp3545
S'IPR037134'
p3546
aS'IPR023379'
p3547
atp3548
Rp3549
sS'Q9M336'
p3550
g2
((lp3551
S'IPR005765'
p3552
aS'IPR029057'
p3553
aS'IPR000836'
p3554
atp3555
Rp3556
sS'P25086'
p3557
g2
((lp3558
S'IPR003297'
p3559
aS'IPR008996'
p3560
aS'IPR020877'
p3561
aS'IPR000975'
p3562
atp3563
Rp3564
sS'P97328'
p3565
g2
((lp3566
S'IPR011611'
p3567
aS'IPR029056'
p3568
aS'IPR034093'
p3569
atp3570
Rp3571
sS'O54918'
p3572
g2
((lp3573
S'IPR017288'
p3574
aS'IPR015040'
p3575
aS'IPR036834'
p3576
aS'IPR014771'
p3577
atp3578
Rp3579
sS'P26715'
p3580
g2
((lp3581
S'IPR033992'
p3582
aS'IPR016186'
p3583
aS'IPR001304'
p3584
aS'IPR016187'
p3585
atp3586
Rp3587
sS'O14836'
p3588
g2
((lp3589
S'IPR022317'
p3590
aS'IPR015384'
p3591
atp3592
Rp3593
sS'P10923'
p3594
g2
((lp3595
S'IPR019841'
p3596
aS'IPR002038'
p3597
atp3598
Rp3599
sS'P20826'
p3600
g2
((lp3601
S'IPR003452'
p3602
aS'IPR009079'
p3603
atp3604
Rp3605
sS'P28068'
p3606
g2
((lp3607
S'IPR007110'
p3608
aS'IPR036179'
p3609
aS'IPR000353'
p3610
aS'IPR013783'
p3611
aS'IPR003597'
p3612
aS'IPR014745'
p3613
aS'IPR003006'
p3614
aS'IPR011162'
p3615
atp3616
Rp3617
sS'P53102'
p3618
g2
((lp3619
S'IPR005647'
p3620
aS'IPR036388'
p3621
atp3622
Rp3623
sS'Q6UW78'
p3624
g2
((lp3625
S'IPR027896'
p3626
atp3627
Rp3628
sS'P36523'
p3629
g2
((lp3630
S'IPR036389'
p3631
aS'IPR000999'
p3632
atp3633
Rp3634
sS'P39177'
p3635
g2
((lp3636
S'IPR014729'
p3637
aS'IPR006016'
p3638
aS'IPR006015'
p3639
atp3640
Rp3641
sS'P36527'
p3642
g2
((lp3643
S'IPR019192'
p3644
atp3645
Rp3646
sS'P97458'
p3647
g2
((lp3648
S'IPR009057'
p3649
aS'IPR017970'
p3650
aS'IPR001356'
p3651
atp3652
Rp3653
sS'Q63203'
p3654
g2
((lp3655
S'IPR003599'
p3656
aS'IPR007110'
p3657
aS'IPR013783'
p3658
aS'IPR036179'
p3659
aS'IPR021157'
p3660
atp3661
Rp3662
sS'Q6NVH7'
p3663
g2
((lp3664
S'IPR027417'
p3665
atp3666
Rp3667
sS'Q02045'
p3668
g2
((lp3669
S'IPR011992'
p3670
aS'IPR018247'
p3671
aS'IPR002048'
p3672
atp3673
Rp3674
sS'P62910'
p3675
g2
((lp3676
S'IPR018263'
p3677
aS'IPR036351'
p3678
aS'IPR001515'
p3679
atp3680
Rp3681
sS'A1A546'
p3682
g2
((lp3683
S'IPR009057'
p3684
aS'IPR017970'
p3685
aS'IPR001356'
p3686
atp3687
Rp3688
sS'P82914'
p3689
g2
((lp3690
S'IPR005290'
p3691
aS'IPR009068'
p3692
aS'IPR000589'
p3693
atp3694
Rp3695
sS'Q9LXV2'
p3696
g2
((lp3697
S'IPR009057'
p3698
aS'IPR001005'
p3699
aS'IPR017930'
p3700
atp3701
Rp3702
sS'P55957'
p3703
g2
((lp3704
S'IPR020728'
p3705
aS'IPR036834'
p3706
aS'IPR010479'
p3707
atp3708
Rp3709
sS'P47017'
p3710
g2
((lp3711
S'IPR034104'
p3712
aS'IPR010920'
p3713
aS'IPR001163'
p3714
atp3715
Rp3716
sS'P38812'
p3717
g2
((lp3718
S'IPR023214'
p3719
aS'IPR010021'
p3720
aS'IPR036412'
p3721
aS'IPR027706'
p3722
atp3723
Rp3724
sS'O00422'
p3725
g2
((lp3726
S'IPR017250'
p3727
aS'IPR010516'
p3728
atp3729
Rp3730
sS'P10252'
p3731
g2
((lp3732
S'IPR003599'
p3733
aS'IPR007110'
p3734
aS'IPR036179'
p3735
aS'IPR013783'
p3736
aS'IPR013106'
p3737
atp3738
Rp3739
sS'Q15024'
p3740
g2
((lp3741
S'IPR001247'
p3742
aS'IPR027408'
p3743
aS'IPR015847'
p3744
aS'IPR020568'
p3745
aS'IPR036345'
p3746
atp3747
Rp3748
sS'Q09926'
p3749
g2
((lp3750
S'IPR004827'
p3751
atp3752
Rp3753
sS'Q15388'
p3754
g2
((lp3755
S'IPR023392'
p3756
aS'IPR002056'
p3757
aS'IPR022422'
p3758
atp3759
Rp3760
sS'Q10474'
p3761
g2
((lp3762
S'IPR037143'
p3763
aS'IPR008278'
p3764
atp3765
Rp3766
sS'P31025'
p3767
g2
((lp3768
S'IPR000566'
p3769
aS'IPR012674'
p3770
aS'IPR002450'
p3771
atp3772
Rp3773
sS'Q9WVL7'
p3774
g2
((lp3775
S'IPR001089'
p3776
aS'IPR036048'
p3777
aS'IPR001811'
p3778
aS'IPR033899'
p3779
aS'IPR018048'
p3780
atp3781
Rp3782
sS'P17891'
p3783
g2
((lp3784
S'IPR000996'
p3785
atp3786
Rp3787
sS'Q9Y275'
p3788
g2
((lp3789
S'IPR008983'
p3790
aS'IPR006052'
p3791
atp3792
Rp3793
sS'P63159'
p3794
g2
((lp3795
S'IPR036910'
p3796
aS'IPR009071'
p3797
aS'IPR017967'
p3798
atp3799
Rp3800
sS'Q10322'
p3801
g2
((lp3802
S'IPR000253'
p3803
aS'IPR001841'
p3804
aS'IPR013083'
p3805
aS'IPR008984'
p3806
atp3807
Rp3808
sS'P39779'
p3809
g2
((lp3810
S'IPR013198'
p3811
aS'IPR029016'
p3812
aS'IPR036388'
p3813
aS'IPR036390'
p3814
aS'IPR010312'
p3815
aS'IPR014154'
p3816
atp3817
Rp3818
sS'Q96MF7'
p3819
g2
((lp3820
S'IPR013083'
p3821
aS'IPR004181'
p3822
atp3823
Rp3824
sS'O96690'
p3825
g2
((lp3826
S'IPR009396'
p3827
atp3828
Rp3829
sS'Q6NPF9'
p3830
g2
((lp3831
S'IPR005746'
p3832
aS'IPR017937'
p3833
aS'IPR036249'
p3834
aS'IPR013766'
p3835
atp3836
Rp3837
sS'P40337'
p3838
g2
((lp3839
S'IPR022772'
p3840
aS'IPR037139'
p3841
aS'IPR037140'
p3842
aS'IPR024048'
p3843
aS'IPR036208'
p3844
aS'IPR024053'
p3845
atp3846
Rp3847
sS'Q9UGN4'
p3848
g2
((lp3849
S'IPR003599'
p3850
aS'IPR007110'
p3851
aS'IPR036179'
p3852
aS'IPR013783'
p3853
aS'IPR013106'
p3854
atp3855
Rp3856
sS'Q8ND25'
p3857
g2
((lp3858
S'IPR001841'
p3859
aS'IPR013083'
p3860
atp3861
Rp3862
sS'P01149'
p3863
g2
((lp3864
S'IPR008675'
p3865
aS'IPR006742'
p3866
aS'IPR016326'
p3867
atp3868
Rp3869
sS'P46022'
p3870
g2
((lp3871
S'IPR023346'
p3872
aS'IPR011812'
p3873
aS'IPR036950'
p3874
aS'IPR001264'
p3875
atp3876
Rp3877
sS'P36622'
p3878
g2
((lp3879
S'IPR000159'
p3880
aS'IPR013761'
p3881
aS'IPR001660'
p3882
atp3883
Rp3884
sS'P47822'
p3885
g2
((lp3886
S'IPR021384'
p3887
aS'IPR037212'
p3888
atp3889
Rp3890
sS'F8W4H9'
p3891
g2
((lp3892
S'IPR028111'
p3893
atp3894
Rp3895
sS'Q9R109'
p3896
g2
((lp3897
S'IPR002993'
p3898
aS'IPR016181'
p3899
atp3900
Rp3901
sS'Q9Y3E0'
p3902
g2
((lp3903
S'IPR007305'
p3904
atp3905
Rp3906
sS'Q9CA40'
p3907
g2
((lp3908
S'IPR000086'
p3909
aS'IPR020476'
p3910
aS'IPR020084'
p3911
aS'IPR015797'
p3912
atp3913
Rp3914
sS'P13902'
p3915
g2
((lp3916
S'IPR011598'
p3917
aS'IPR036638'
p3918
atp3919
Rp3920
sS'Q9Y3E5'
p3921
g2
((lp3922
S'IPR002833'
p3923
aS'IPR023476'
p3924
atp3925
Rp3926
sS'Q9UHY7'
p3927
g2
((lp3928
S'IPR023214'
p3929
aS'IPR006439'
p3930
aS'IPR036412'
p3931
aS'IPR027511'
p3932
aS'IPR023943'
p3933
atp3934
Rp3935
sS'Q9NRJ3'
p3936
g2
((lp3937
S'IPR036048'
p3938
aS'IPR001811'
p3939
aS'IPR000827'
p3940
atp3941
Rp3942
sS'Q8IQA2'
p3943
g2
((lp3944
S'IPR000504'
p3945
aS'IPR035979'
p3946
atp3947
Rp3948
sS'P76343'
p3949
g2
((lp3950
S'IPR022837'
p3951
aS'IPR013130'
p3952
atp3953
Rp3954
sS'Q01524'
p3955
g2
((lp3956
S'IPR002366'
p3957
aS'IPR006080'
p3958
aS'IPR006081'
p3959
aS'IPR016327'
p3960
atp3961
Rp3962
sS'P76346'
p3963
g2
((lp3964
S'IPR024079'
p3965
aS'IPR010384'
p3966
atp3967
Rp3968
sS'Q9LXG1'
p3969
g2
((lp3970
S'IPR005710'
p3971
aS'IPR018079'
p3972
aS'IPR036986'
p3973
aS'IPR001912'
p3974
aS'IPR002942'
p3975
atp3976
Rp3977
sS'Q8VCC1'
p3978
g2
((lp3979
S'IPR002347'
p3980
aS'IPR036291'
p3981
aS'IPR020904'
p3982
atp3983
Rp3984
sS'Q12173'
p3985
g2
((lp3986
S'IPR005162'
p3987
aS'IPR001878'
p3988
aS'IPR036875'
p3989
atp3990
Rp3991
sS'Q96FZ7'
p3992
g2
((lp3993
S'IPR005024'
p3994
atp3995
Rp3996
sS'Q06346'
p3997
g2
((lp3998
S'IPR013862'
p3999
atp4000
Rp4001
sS'P0A8E7'
p4002
g2
((lp4003
S'IPR007551'
p4004
aS'IPR036183'
p4005
aS'IPR035570'
p4006
aS'IPR035571'
p4007
atp4008
Rp4009
sS'P32805'
p4010
g2
((lp4011
S'IPR013087'
p4012
aS'IPR036236'
p4013
atp4014
Rp4015
sS'Q8IRS7'
p4016
g2
((lp4017
S'IPR001152'
p4018
atp4019
Rp4020
sS'O43812'
p4021
g2
((lp4022
S'IPR009057'
p4023
aS'IPR017970'
p4024
aS'IPR001356'
p4025
aS'IPR000047'
p4026
atp4027
Rp4028
sS'O23138'
p4029
g2
((lp4030
S'IPR009056'
p4031
aS'IPR002327'
p4032
aS'IPR036909'
p4033
atp4034
Rp4035
sS'Q6WNK7'
p4036
g2
((lp4037
S'IPR018783'
p4038
atp4039
Rp4040
sS'O95399'
p4041
g2
((lp4042
S'IPR001483'
p4043
atp4044
Rp4045
sS'Q8GYB1'
p4046
g2
((lp4047
S'IPR030674'
p4048
aS'IPR000086'
p4049
aS'IPR015797'
p4050
atp4051
Rp4052
sS'P28263'
p4053
g2
((lp4054
S'IPR000608'
p4055
aS'IPR023313'
p4056
aS'IPR016135'
p4057
atp4058
Rp4059
sS'Q07731'
p4060
g2
((lp4061
S'IPR001839'
p4062
aS'IPR016649'
p4063
aS'IPR029034'
p4064
atp4065
Rp4066
sS'Q7TS73'
p4067
g2
((lp4068
S'IPR028215'
p4069
atp4070
Rp4071
sS'O43745'
p4072
g2
((lp4073
S'IPR011992'
p4074
aS'IPR018247'
p4075
aS'IPR002048'
p4076
atp4077
Rp4078
sS'P51418'
p4079
g2
((lp4080
S'IPR028877'
p4081
aS'IPR021138'
p4082
aS'IPR023573'
p4083
atp4084
Rp4085
sS'Q9BPX1'
p4086
g2
((lp4087
S'IPR002347'
p4088
aS'IPR036291'
p4089
aS'IPR020904'
p4090
atp4091
Rp4092
sS'P38786'
p4093
g2
((lp4094
S'IPR016195'
p4095
aS'IPR002738'
p4096
atp4097
Rp4098
sS'P25626'
p4099
g2
((lp4100
S'IPR001857'
p4101
aS'IPR008991'
p4102
atp4103
Rp4104
sS'Q9BU02'
p4105
g2
((lp4106
S'IPR033469'
p4107
aS'IPR023577'
p4108
aS'IPR012177'
p4109
atp4110
Rp4111
sS'Q8W453'
p4112
g2
((lp4113
S'IPR016140'
p4114
aS'IPR036312'
p4115
atp4116
Rp4117
sS'Q9SY73'
p4118
g2
((lp4119
S'IPR002347'
p4120
aS'IPR036291'
p4121
aS'IPR020904'
p4122
atp4123
Rp4124
sS'Q8IY26'
p4125
g2
((lp4126
S'IPR000326'
p4127
aS'IPR036938'
p4128
atp4129
Rp4130
sS'P0AB38'
p4131
g2
((lp4132
S'IPR014094'
p4133
atp4134
Rp4135
sS'P97885'
p4136
g2
((lp4137
S'IPR001089'
p4138
aS'IPR036048'
p4139
aS'IPR001811'
p4140
aS'IPR033899'
p4141
aS'IPR018048'
p4142
atp4143
Rp4144
sS'P32662'
p4145
g2
((lp4146
S'IPR006439'
p4147
aS'IPR037512'
p4148
aS'IPR023214'
p4149
aS'IPR023198'
p4150
aS'IPR036412'
p4151
aS'IPR006346'
p4152
atp4153
Rp4154
sS'Q9FIH9'
p4155
g2
((lp4156
S'IPR011992'
p4157
aS'IPR018247'
p4158
aS'IPR002048'
p4159
atp4160
Rp4161
sS'Q8CIV7'
p4162
g2
((lp4163
S'IPR013087'
p4164
aS'IPR036236'
p4165
atp4166
Rp4167
sS'O60175'
p4168
g2
((lp4169
S'IPR008493'
p4170
atp4171
Rp4172
sS'O95059'
p4173
g2
((lp4174
S'IPR002759'
p4175
atp4176
Rp4177
sS'P38242'
p4178
g2
((lp4179
S'IPR013969'
p4180
atp4181
Rp4182
sS'P20294'
p4183
g2
((lp4184
S'IPR000151'
p4185
aS'IPR009079'
p4186
atp4187
Rp4188
sS'P20291'
p4189
g2
((lp4190
S'IPR001129'
p4191
aS'IPR018295'
p4192
aS'IPR023352'
p4193
aS'IPR001446'
p4194
atp4195
Rp4196
sS'P20290'
p4197
g2
((lp4198
S'IPR002715'
p4199
atp4200
Rp4201
sS'P0ACL9'
p4202
g2
((lp4203
S'IPR008920'
p4204
aS'IPR036388'
p4205
aS'IPR000524'
p4206
aS'IPR011711'
p4207
aS'IPR036390'
p4208
atp4209
Rp4210
sS'Q9Y3D9'
p4211
g2
((lp4212
S'IPR023611'
p4213
atp4214
Rp4215
sS'Q3E840'
p4216
g2
((lp4217
S'IPR007872'
p4218
aS'IPR036671'
p4219
atp4220
Rp4221
sS'Q9UNL4'
p4222
g2
((lp4223
S'IPR019787'
p4224
aS'IPR019786'
p4225
aS'IPR011011'
p4226
aS'IPR013083'
p4227
aS'IPR024610'
p4228
aS'IPR001965'
p4229
atp4230
Rp4231
sS'P55075'
p4232
g2
((lp4233
S'IPR008996'
p4234
aS'IPR002209'
p4235
atp4236
Rp4237
sS'Q9LH85'
p4238
g2
((lp4239
S'IPR027534'
p4240
atp4241
Rp4242
sS'P20052'
p4243
g2
((lp4244
S'IPR013922'
p4245
atp4246
Rp4247
sS'Q9H320'
p4248
g2
((lp4249
S'IPR026653'
p4250
atp4251
Rp4252
sS'P11912'
p4253
g2
((lp4254
S'IPR003599'
p4255
aS'IPR003598'
p4256
aS'IPR036179'
p4257
aS'IPR007110'
p4258
aS'IPR013783'
p4259
aS'IPR003110'
p4260
aS'IPR013151'
p4261
atp4262
Rp4263
sS'P07283'
p4264
g2
((lp4265
S'IPR023214'
p4266
aS'IPR036412'
p4267
aS'IPR006379'
p4268
aS'IPR005002'
p4269
atp4270
Rp4271
sS'Q9FN50'
p4272
g2
((lp4273
S'IPR021788'
p4274
atp4275
Rp4276
sS'P41236'
p4277
g2
((lp4278
S'IPR007062'
p4279
atp4280
Rp4281
sS'P07936'
p4282
g2
((lp4283
S'IPR001422'
p4284
aS'IPR000048'
p4285
aS'IPR018243'
p4286
aS'IPR018947'
p4287
aS'IPR017454'
p4288
aS'IPR033137'
p4289
atp4290
Rp4291
sS'Q96PE7'
p4292
g2
((lp4293
S'IPR037523'
p4294
aS'IPR029068'
p4295
aS'IPR017515'
p4296
atp4297
Rp4298
sS'P42127'
p4299
g2
((lp4300
S'IPR036836'
p4301
aS'IPR027300'
p4302
aS'IPR007733'
p4303
atp4304
Rp4305
sS'P31168'
p4306
g2
((lp4307
S'IPR030513'
p4308
aS'IPR000167'
p4309
atp4310
Rp4311
sS'P13164'
p4312
g2
((lp4313
S'IPR007593'
p4314
atp4315
Rp4316
sS'Q12255'
p4317
g2
((lp4318
S'IPR019005'
p4319
aS'IPR001388'
p4320
atp4321
Rp4322
sS'Q923Z4'
p4323
g2
((lp4324
S'IPR011598'
p4325
aS'IPR036638'
p4326
atp4327
Rp4328
sS'Q9NPD8'
p4329
g2
((lp4330
S'IPR000608'
p4331
aS'IPR023313'
p4332
aS'IPR016135'
p4333
atp4334
Rp4335
sS'O95639'
p4336
g2
((lp4337
S'IPR036875'
p4338
aS'IPR001878'
p4339
aS'IPR036855'
p4340
aS'IPR000571'
p4341
atp4342
Rp4343
sS'Q9H063'
p4344
g2
((lp4345
S'IPR015257'
p4346
atp4347
Rp4348
sS'O95139'
p4349
g2
((lp4350
S'IPR019174'
p4351
atp4352
Rp4353
sS'Q9H0X6'
p4354
g2
((lp4355
S'IPR017907'
p4356
aS'IPR001841'
p4357
aS'IPR013083'
p4358
atp4359
Rp4360
sS'P55212'
p4361
g2
((lp4362
S'IPR029030'
p4363
aS'IPR016129'
p4364
aS'IPR002138'
p4365
aS'IPR015917'
p4366
aS'IPR033139'
p4367
aS'IPR001309'
p4368
atp4369
Rp4370
sS'Q9BYD1'
p4371
g2
((lp4372
S'IPR005823'
p4373
aS'IPR005822'
p4374
aS'IPR036899'
p4375
aS'IPR023563'
p4376
atp4377
Rp4378
sS'Q9HB20'
p4379
g2
((lp4380
S'IPR001849'
p4381
aS'IPR011993'
p4382
atp4383
Rp4384
sS'Q8N661'
p4385
g2
((lp4386
S'IPR012506'
p4387
atp4388
Rp4389
sS'Q12918'
p4390
g2
((lp4391
S'IPR033992'
p4392
aS'IPR016186'
p4393
aS'IPR001304'
p4394
aS'IPR016187'
p4395
atp4396
Rp4397
sS'P41546'
p4398
g2
((lp4399
S'IPR004827'
p4400
atp4401
Rp4402
sS'P52815'
p4403
g2
((lp4404
S'IPR036235'
p4405
aS'IPR008932'
p4406
aS'IPR000206'
p4407
aS'IPR014719'
p4408
aS'IPR013823'
p4409
atp4410
Rp4411
sS'Q8N668'
p4412
g2
((lp4413
S'IPR033776'
p4414
aS'IPR017920'
p4415
aS'IPR037351'
p4416
atp4417
Rp4418
sS'Q12320'
p4419
g2
((lp4420
S'IPR035680'
p4421
aS'IPR001279'
p4422
aS'IPR036866'
p4423
aS'IPR032282'
p4424
atp4425
Rp4426
sS'Q09717'
p4427
g2
((lp4428
S'IPR011993'
p4429
aS'IPR000156'
p4430
atp4431
Rp4432
sS'P0DMC7'
p4433
g2
((lp4434
S'IPR000792'
p4435
aS'IPR036388'
p4436
aS'IPR011006'
p4437
aS'IPR001789'
p4438
aS'IPR016032'
p4439
aS'IPR030864'
p4440
atp4441
Rp4442
sS'Q9UH92'
p4443
g2
((lp4444
S'IPR011598'
p4445
aS'IPR036638'
p4446
atp4447
Rp4448
sS'Q9NZS2'
p4449
g2
((lp4450
S'IPR033992'
p4451
aS'IPR016186'
p4452
aS'IPR001304'
p4453
aS'IPR016187'
p4454
atp4455
Rp4456
sS'Q9FLT2'
p4457
g2
((lp4458
S'IPR005522'
p4459
atp4460
Rp4461
sS'P10795'
p4462
g2
((lp4463
S'IPR024680'
p4464
aS'IPR024681'
p4465
aS'IPR036385'
p4466
aS'IPR000894'
p4467
atp4468
Rp4469
sS'Q9NUP9'
p4470
g2
((lp4471
S'IPR001478'
p4472
aS'IPR036892'
p4473
aS'IPR036034'
p4474
aS'IPR004172'
p4475
aS'IPR017365'
p4476
aS'IPR014775'
p4477
atp4478
Rp4479
sS'Q9FJV5'
p4480
g2
((lp4481
S'IPR009057'
p4482
aS'IPR006447'
p4483
aS'IPR001005'
p4484
atp4485
Rp4486
sS'Q00604'
p4487
g2
((lp4488
S'IPR006207'
p4489
aS'IPR029034'
p4490
aS'IPR006208'
p4491
aS'IPR003064'
p4492
atp4493
Rp4494
sS'Q9NRX4'
p4495
g2
((lp4496
S'IPR007702'
p4497
atp4498
Rp4499
sS'P25208'
p4500
g2
((lp4501
S'IPR003958'
p4502
aS'IPR009072'
p4503
aS'IPR003956'
p4504
atp4505
Rp4506
sS'P30011'
p4507
g2
((lp4508
S'IPR027277'
p4509
aS'IPR037128'
p4510
aS'IPR013785'
p4511
aS'IPR002638'
p4512
aS'IPR004393'
p4513
aS'IPR022412'
p4514
aS'IPR036068'
p4515
atp4516
Rp4517
sS'P48316'
p4518
g2
((lp4519
S'IPR029064'
p4520
aS'IPR004038'
p4521
atp4522
Rp4523
sS'P40096'
p4524
g2
((lp4525
S'IPR003958'
p4526
aS'IPR009072'
p4527
atp4528
Rp4529
sS'O95476'
p4530
g2
((lp4531
S'IPR023214'
p4532
aS'IPR011948'
p4533
aS'IPR036412'
p4534
aS'IPR004274'
p4535
atp4536
Rp4537
sS'P77754'
p4538
g2
((lp4539
S'IPR012899'
p4540
atp4541
Rp4542
sS'P01579'
p4543
g2
((lp4544
S'IPR009079'
p4545
aS'IPR002069'
p4546
atp4547
Rp4548
sS'P48346'
p4549
g2
((lp4550
S'IPR020439'
p4551
aS'IPR003443'
p4552
aS'IPR020466'
p4553
aS'IPR009079'
p4554
atp4555
Rp4556
sS'P60174'
p4557
g2
((lp4558
S'IPR035990'
p4559
aS'IPR020861'
p4560
aS'IPR013785'
p4561
aS'IPR000652'
p4562
aS'IPR022896'
p4563
atp4564
Rp4565
sS'Q16540'
p4566
g2
((lp4567
S'IPR013025'
p4568
aS'IPR012678'
p4569
atp4570
Rp4571
sS'P04640'
p4572
g2
((lp4573
S'IPR000294'
p4574
aS'IPR035972'
p4575
aS'IPR002384'
p4576
atp4577
Rp4578
sS'Q12380'
p4579
g2
((lp4580
S'IPR007239'
p4581
atp4582
Rp4583
sS'P42834'
p4584
g2
((lp4585
S'IPR036869'
p4586
aS'IPR001623'
p4587
atp4588
Rp4589
sS'O16011'
p4590
g2
((lp4591
S'IPR036855'
p4592
aS'IPR000571'
p4593
atp4594
Rp4595
sS'Q9HBH1'
p4596
g2
((lp4597
S'IPR036821'
p4598
aS'IPR023635'
p4599
atp4600
Rp4601
sS'Q93W22'
p4602
g2
((lp4603
S'IPR016180'
p4604
aS'IPR001197'
p4605
aS'IPR036920'
p4606
aS'IPR018255'
p4607
atp4608
Rp4609
sS'Q9V3W7'
p4610
g2
((lp4611
S'IPR034520'
p4612
aS'IPR000504'
p4613
aS'IPR035979'
p4614
atp4615
Rp4616
sS'P38523'
p4617
g2
((lp4618
S'IPR009012'
p4619
aS'IPR000740'
p4620
aS'IPR013805'
p4621
atp4622
Rp4623
sS'Q9SKD0'
p4624
g2
((lp4625
S'IPR010409'
p4626
atp4627
Rp4628
sS'P70396'
p4629
g2
((lp4630
S'IPR020479'
p4631
aS'IPR000047'
p4632
aS'IPR017970'
p4633
aS'IPR001356'
p4634
aS'IPR009057'
p4635
aS'IPR022135'
p4636
atp4637
Rp4638
sS'P28707'
p4639
g2
((lp4640
S'IPR008978'
p4641
aS'IPR007052'
p4642
atp4643
Rp4644
sS'Q9HGL5'
p4645
g2
((lp4646
S'IPR014039'
p4647
aS'IPR001816'
p4648
aS'IPR036402'
p4649
atp4650
Rp4651
sS'P02515'
p4652
g2
((lp4653
S'IPR008978'
p4654
aS'IPR001436'
p4655
aS'IPR002068'
p4656
atp4657
Rp4658
sS'Q9Y6A4'
p4659
g2
((lp4660
S'IPR007714'
p4661
atp4662
Rp4663
sS'Q9JI48'
p4664
g2
((lp4665
S'IPR006461'
p4666
atp4667
Rp4668
sS'Q9NPG2'
p4669
g2
((lp4670
S'IPR000971'
p4671
aS'IPR009050'
p4672
atp4673
Rp4674
sS'P11441'
p4675
g2
((lp4676
S'IPR000626'
p4677
aS'IPR019956'
p4678
aS'IPR019954'
p4679
aS'IPR029071'
p4680
atp4681
Rp4682
sS'P32445'
p4683
g2
((lp4684
S'IPR000424'
p4685
aS'IPR012340'
p4686
atp4687
Rp4688
sS'Q9UBV8'
p4689
g2
((lp4690
S'IPR011992'
p4691
aS'IPR018247'
p4692
aS'IPR002048'
p4693
atp4694
Rp4695
sS'O74435'
p4696
g2
((lp4697
S'IPR011992'
p4698
aS'IPR018247'
p4699
aS'IPR002048'
p4700
atp4701
Rp4702
sS'P32529'
p4703
g2
((lp4704
S'IPR019761'
p4705
aS'IPR034004'
p4706
aS'IPR001222'
p4707
aS'IPR012164'
p4708
aS'IPR001529'
p4709
atp4710
Rp4711
sS'P32524'
p4712
g2
((lp4713
S'IPR035967'
p4714
aS'IPR000061'
p4715
aS'IPR022030'
p4716
atp4717
Rp4718
sS'O94651'
p4719
g2
((lp4720
S'IPR006011'
p4721
aS'IPR010989'
p4722
aS'IPR000727'
p4723
atp4724
Rp4725
sS'Q9S7L9'
p4726
g2
((lp4727
S'IPR036549'
p4728
aS'IPR003213'
p4729
atp4730
Rp4731
sS'Q84Y95'
p4732
g2
((lp4733
S'IPR002109'
p4734
aS'IPR033658'
p4735
aS'IPR004480'
p4736
aS'IPR036249'
p4737
atp4738
Rp4739
sS'Q12030'
p4740
g2
((lp4741
S'IPR003923'
p4742
atp4743
Rp4744
sS'P40186'
p4745
g2
((lp4746
S'IPR013922'
p4747
aS'IPR036915'
p4748
aS'IPR012389'
p4749
atp4750
Rp4751
sS'Q8NFX7'
p4752
g2
((lp4753
S'IPR001388'
p4754
aS'IPR028258'
p4755
atp4756
Rp4757
sS'P26289'
p4758
g2
((lp4759
S'IPR001133'
p4760
atp4761
Rp4762
sS'P01589'
p4763
g2
((lp4764
S'IPR035976'
p4765
aS'IPR000436'
p4766
atp4767
Rp4768
sS'Q96AZ6'
p4769
g2
((lp4770
S'IPR036397'
p4771
aS'IPR012337'
p4772
aS'IPR013520'
p4773
atp4774
Rp4775
sS'Q92913'
p4776
g2
((lp4777
S'IPR008996'
p4778
aS'IPR002209'
p4779
atp4780
Rp4781
sS'Q09814'
p4782
g2
((lp4783
S'IPR019012'
p4784
aS'IPR029063'
p4785
atp4786
Rp4787
sS'P01583'
p4788
g2
((lp4789
S'IPR003502'
p4790
aS'IPR020877'
p4791
aS'IPR003295'
p4792
aS'IPR008996'
p4793
aS'IPR000975'
p4794
atp4795
Rp4796
sS'Q9Z205'
p4797
g2
((lp4798
S'IPR017362'
p4799
aS'IPR002110'
p4800
aS'IPR020683'
p4801
aS'IPR036770'
p4802
atp4803
Rp4804
sS'Q9LHJ8'
p4805
g2
((lp4806
S'IPR002653'
p4807
aS'IPR035896'
p4808
aS'IPR000058'
p4809
atp4810
Rp4811
sS'Q96HS1'
p4812
g2
((lp4813
S'IPR029033'
p4814
aS'IPR013078'
p4815
atp4816
Rp4817
sS'O95297'
p4818
g2
((lp4819
S'IPR003599'
p4820
aS'IPR007110'
p4821
aS'IPR013783'
p4822
aS'IPR013106'
p4823
aS'IPR036179'
p4824
aS'IPR021157'
p4825
aS'IPR000920'
p4826
atp4827
Rp4828
sS'O15342'
p4829
g2
((lp4830
S'IPR008389'
p4831
aS'IPR017385'
p4832
atp4833
Rp4834
sS'O80929'
p4835
g2
((lp4836
S'IPR000509'
p4837
atp4838
Rp4839
sS'P12660'
p4840
g2
((lp4841
S'IPR003109'
p4842
atp4843
Rp4844
sS'P59231'
p4845
g2
((lp4846
S'IPR023674'
p4847
aS'IPR023673'
p4848
aS'IPR002143'
p4849
aS'IPR028364'
p4850
atp4851
Rp4852
sS'Q9HXW2'
p4853
g2
((lp4854
S'IPR009057'
p4855
aS'IPR001647'
p4856
aS'IPR036271'
p4857
atp4858
Rp4859
sS'Q96BD8'
p4860
g2
((lp4861
S'IPR009829'
p4862
atp4863
Rp4864
sS'P50914'
p4865
g2
((lp4866
S'IPR014722'
p4867
aS'IPR002784'
p4868
aS'IPR008991'
p4869
atp4870
Rp4871
sS'P55000'
p4872
g2
((lp4873
S'IPR016054'
p4874
atp4875
Rp4876
sS'Q86VX2'
p4877
g2
((lp4878
S'IPR037358'
p4879
aS'IPR017920'
p4880
atp4881
Rp4882
sS'P33228'
p4883
g2
((lp4884
S'IPR018330'
p4885
aS'IPR004590'
p4886
atp4887
Rp4888
sS'Q96BD6'
p4889
g2
((lp4890
S'IPR001496'
p4891
aS'IPR003877'
p4892
aS'IPR013320'
p4893
aS'IPR001870'
p4894
atp4895
Rp4896
sS'P32787'
p4897
g2
((lp4898
S'IPR009446'
p4899
atp4900
Rp4901
sS'Q9C8M2'
p4902
g2
((lp4903
S'IPR011057'
p4904
aS'IPR002579'
p4905
atp4906
Rp4907
sS'Q9D8U4'
p4908
g2
((lp4909
S'IPR008983'
p4910
aS'IPR008160'
p4911
aS'IPR016133'
p4912
aS'IPR001073'
p4913
atp4914
Rp4915
sS'P15927'
p4916
g2
((lp4917
S'IPR036388'
p4918
aS'IPR012340'
p4919
aS'IPR014646'
p4920
aS'IPR014892'
p4921
aS'IPR036390'
p4922
atp4923
Rp4924
sS'P18196'
p4925
g2
((lp4926
S'IPR013033'
p4927
aS'IPR036145'
p4928
aS'IPR005526'
p4929
aS'IPR007874'
p4930
atp4931
Rp4932
sS'P40363'
p4933
g2
((lp4934
S'IPR014186'
p4935
aS'IPR000801'
p4936
aS'IPR029058'
p4937
atp4938
Rp4939
sS'P38632'
p4940
g2
((lp4941
S'IPR013083'
p4942
aS'IPR004181'
p4943
atp4944
Rp4945
sS'P38985'
p4946
g2
((lp4947
S'IPR009018'
p4948
aS'IPR003210'
p4949
atp4950
Rp4951
sS'P21272'
p4952
g2
((lp4953
S'IPR004827'
p4954
aS'IPR016468'
p4955
atp4956
Rp4957
sS'P38987'
p4958
g2
((lp4959
S'IPR017231'
p4960
aS'IPR005225'
p4961
aS'IPR027417'
p4962
aS'IPR001806'
p4963
atp4964
Rp4965
sS'P38636'
p4966
g2
((lp4967
S'IPR017969'
p4968
aS'IPR006121'
p4969
aS'IPR036163'
p4970
atp4971
Rp4972
sS'O08604'
p4973
g2
((lp4974
S'IPR037055'
p4975
aS'IPR029287'
p4976
aS'IPR011162'
p4977
atp4978
Rp4979
sS'Q99216'
p4980
g2
((lp4981
S'IPR036612'
p4982
atp4983
Rp4984
sS'Q64288'
p4985
g2
((lp4986
S'IPR036727'
p4987
aS'IPR009103'
p4988
atp4989
Rp4990
sS'P62081'
p4991
g2
((lp4992
S'IPR000554'
p4993
atp4994
Rp4995
sS'P50753'
p4996
g2
((lp4997
S'IPR001978'
p4998
atp4999
Rp5000
sS'Q9H160'
p5001
g2
((lp5002
S'IPR019787'
p5003
aS'IPR019786'
p5004
aS'IPR011011'
p5005
aS'IPR013083'
p5006
aS'IPR024610'
p5007
aS'IPR001965'
p5008
atp5009
Rp5010
sS'Q95ZG8'
p5011
g2
((lp5012
S'IPR036284'
p5013
aS'IPR015898'
p5014
atp5015
Rp5016
sS'Q8WVE0'
p5017
g2
((lp5018
S'IPR002052'
p5019
aS'IPR019369'
p5020
aS'IPR029063'
p5021
atp5022
Rp5023
sS'Q16611'
p5024
g2
((lp5025
S'IPR020728'
p5026
aS'IPR026298'
p5027
aS'IPR020717'
p5028
aS'IPR002475'
p5029
aS'IPR020726'
p5030
aS'IPR036834'
p5031
atp5032
Rp5033
sS'O81270'
p5034
g2
((lp5035
S'IPR007736'
p5036
atp5037
Rp5038
sS'P98066'
p5039
g2
((lp5040
S'IPR035914'
p5041
aS'IPR000538'
p5042
aS'IPR000859'
p5043
aS'IPR016186'
p5044
aS'IPR016187'
p5045
atp5046
Rp5047
sS'Q5VWC8'
p5048
g2
((lp5049
S'IPR007482'
p5050
atp5051
Rp5052
sS'Q8VZW1'
p5053
g2
((lp5054
S'IPR000425'
p5055
aS'IPR023271'
p5056
aS'IPR022357'
p5057
atp5058
Rp5059
sS'Q03778'
p5060
g2
((lp5061
S'IPR023465'
p5062
aS'IPR015865'
p5063
atp5064
Rp5065
sS'O55183'
p5066
g2
((lp5067
S'IPR004978'
p5068
atp5069
Rp5070
sS'Q9DAR1'
p5071
g2
((lp5072
S'IPR008253'
p5073
atp5074
Rp5075
sS'P0AD42'
p5076
g2
((lp5077
S'IPR023214'
p5078
aS'IPR036412'
p5079
aS'IPR006435'
p5080
atp5081
Rp5082
sS'Q6Q547'
p5083
g2
((lp5084
S'IPR036756'
p5085
aS'IPR007264'
p5086
atp5087
Rp5088
sS'Q9VQ35'
p5089
g2
((lp5090
S'IPR036838'
p5091
aS'IPR027486'
p5092
atp5093
Rp5094
sS'Q9VTE8'
p5095
g2
((lp5096
S'IPR004827'
p5097
atp5098
Rp5099
sS'Q9NIR3'
p5100
g2
((lp5101
S'IPR004827'
p5102
atp5103
Rp5104
sS'P53999'
p5105
g2
((lp5106
S'IPR009044'
p5107
aS'IPR003173'
p5108
atp5109
Rp5110
sS'Q9VY78'
p5111
g2
((lp5112
S'IPR036282'
p5113
aS'IPR036249'
p5114
atp5115
Rp5116
sS'P16401'
p5117
g2
((lp5118
S'IPR036388'
p5119
aS'IPR005819'
p5120
aS'IPR005818'
p5121
aS'IPR036390'
p5122
atp5123
Rp5124
sS'Q9UBX0'
p5125
g2
((lp5126
S'IPR009057'
p5127
aS'IPR017970'
p5128
aS'IPR001356'
p5129
atp5130
Rp5131
sS'O95295'
p5132
g2
((lp5133
S'IPR017246'
p5134
aS'IPR028119'
p5135
atp5136
Rp5137
sS'P08949'
p5138
g2
((lp5139
S'IPR000874'
p5140
atp5141
Rp5142
sS'Q86SE8'
p5143
g2
((lp5144
S'IPR024057'
p5145
aS'IPR036824'
p5146
atp5147
Rp5148
sS'P61969'
p5149
g2
((lp5150
S'IPR001781'
p5151
atp5152
Rp5153
sS'P20067'
p5154
g2
((lp5155
S'IPR011598'
p5156
aS'IPR036638'
p5157
atp5158
Rp5159
sS'P0AE95'
p5160
g2
((lp5161
S'IPR018900'
p5162
atp5163
Rp5164
sS'P37188'
p5165
g2
((lp5166
S'IPR036095'
p5167
aS'IPR003501'
p5168
aS'IPR013011'
p5169
atp5170
Rp5171
sS'Q84VV6'
p5172
g2
((lp5173
S'IPR001310'
p5174
aS'IPR036265'
p5175
aS'IPR011146'
p5176
atp5177
Rp5178
sS'O43709'
p5179
g2
((lp5180
S'IPR022238'
p5181
aS'IPR013216'
p5182
aS'IPR029063'
p5183
atp5184
Rp5185
sS'Q96D59'
p5186
g2
((lp5187
S'IPR001841'
p5188
aS'IPR017907'
p5189
aS'IPR013083'
p5190
atp5191
Rp5192
sS'P51405'
p5193
g2
((lp5194
S'IPR018199'
p5195
aS'IPR013843'
p5196
aS'IPR002942'
p5197
aS'IPR032277'
p5198
aS'IPR013845'
p5199
aS'IPR036986'
p5200
aS'IPR000876'
p5201
atp5202
Rp5203
sS'Q8WV22'
p5204
g2
((lp5205
S'IPR002219'
p5206
aS'IPR011513'
p5207
aS'IPR014857'
p5208
aS'IPR001841'
p5209
aS'IPR013083'
p5210
atp5211
Rp5212
sS'Q99181'
p5213
g2
((lp5214
S'IPR000504'
p5215
aS'IPR035979'
p5216
aS'IPR034158'
p5217
atp5218
Rp5219
sS'O94811'
p5220
g2
((lp5221
S'IPR008907'
p5222
aS'IPR011992'
p5223
atp5224
Rp5225
sS'Q03503'
p5226
g2
((lp5227
S'IPR000182'
p5228
aS'IPR016181'
p5229
atp5230
Rp5231
sS'P16035'
p5232
g2
((lp5233
S'IPR008993'
p5234
aS'IPR001820'
p5235
aS'IPR001134'
p5236
aS'IPR027465'
p5237
aS'IPR030490'
p5238
atp5239
Rp5240
sS'P04982'
p5241
g2
((lp5242
S'IPR023750'
p5243
aS'IPR023064'
p5244
aS'IPR007721'
p5245
atp5246
Rp5247
sS'Q9VJN9'
p5248
g2
((lp5249
S'IPR006026'
p5250
aS'IPR034035'
p5251
aS'IPR001506'
p5252
aS'IPR024079'
p5253
atp5254
Rp5255
sS'Q3ZAK6'
p5256
g2
((lp5257
S'IPR006601'
p5258
atp5259
Rp5260
sS'P42287'
p5261
g2
((lp5262
S'IPR013032'
p5263
aS'IPR000742'
p5264
atp5265
Rp5266
sS'G3XCV1'
p5267
g2
((lp5268
S'IPR036388'
p5269
aS'IPR014284'
p5270
aS'IPR013249'
p5271
aS'IPR007627'
p5272
aS'IPR013325'
p5273
aS'IPR013324'
p5274
atp5275
Rp5276
sS'Q8LEK4'
p5277
g2
((lp5278
S'IPR017937'
p5279
aS'IPR036249'
p5280
aS'IPR013766'
p5281
atp5282
Rp5283
sS'Q95RR6'
p5284
g2
((lp5285
S'IPR006628'
p5286
atp5287
Rp5288
sS'Q9C5C8'
p5289
g2
((lp5290
S'IPR011057'
p5291
aS'IPR002579'
p5292
atp5293
Rp5294
sS'Q96IU4'
p5295
g2
((lp5296
S'IPR000073'
p5297
aS'IPR029058'
p5298
atp5299
Rp5300
sS'Q07688'
p5301
g2
((lp5302
S'IPR036641'
p5303
aS'IPR008207'
p5304
atp5305
Rp5306
sS'Q9CWV6'
p5307
g2
((lp5308
S'IPR009548'
p5309
atp5310
Rp5311
sS'O94321'
p5312
g2
((lp5313
S'IPR036641'
p5314
aS'IPR008207'
p5315
atp5316
Rp5317
sS'Q53TN4'
p5318
g2
((lp5319
S'IPR006593'
p5320
atp5321
Rp5322
sS'P11667'
p5323
g2
((lp5324
S'IPR001123'
p5325
aS'IPR004777'
p5326
aS'IPR023445'
p5327
atp5328
Rp5329
sS'P0AFK2'
p5330
g2
((lp5331
S'IPR006419'
p5332
atp5333
Rp5334
sS'P38291'
p5335
g2
((lp5336
S'IPR014612'
p5337
aS'IPR036882'
p5338
aS'IPR020241'
p5339
atp5340
Rp5341
sS'Q9USR1'
p5342
g2
((lp5343
S'IPR008979'
p5344
aS'IPR036249'
p5345
aS'IPR013766'
p5346
aS'IPR037047'
p5347
aS'IPR010400'
p5348
atp5349
Rp5350
sS'P0AFK6'
p5351
g2
((lp5352
S'IPR035906'
p5353
aS'IPR000515'
p5354
atp5355
Rp5356
sS'P48973'
p5357
g2
((lp5358
S'IPR001089'
p5359
aS'IPR036048'
p5360
aS'IPR001811'
p5361
aS'IPR033899'
p5362
aS'IPR018048'
p5363
atp5364
Rp5365
sS'P0AFK4'
p5366
g2
((lp5367
S'IPR035906'
p5368
aS'IPR000515'
p5369
atp5370
Rp5371
sS'Q9DB60'
p5372
g2
((lp5373
S'IPR036249'
p5374
aS'IPR032801'
p5375
atp5376
Rp5377
sS'P31377'
p5378
g2
((lp5379
S'IPR000727'
p5380
atp5381
Rp5382
sS'Q9UTN9'
p5383
g2
((lp5384
S'IPR036388'
p5385
aS'IPR014048'
p5386
aS'IPR036217'
p5387
atp5388
Rp5389
sS'Q61335'
p5390
g2
((lp5391
S'IPR008417'
p5392
atp5393
Rp5394
sS'Q7L8W6'
p5395
g2
((lp5396
S'IPR014729'
p5397
aS'IPR002761'
p5398
aS'IPR030662'
p5399
atp5400
Rp5401
sS'Q9Y5J7'
p5402
g2
((lp5403
S'IPR004217'
p5404
aS'IPR035427'
p5405
atp5406
Rp5407
sS'O43653'
p5408
g2
((lp5409
S'IPR016054'
p5410
atp5411
Rp5412
sS'Q9JI15'
p5413
g2
((lp5414
S'IPR026779'
p5415
atp5416
Rp5417
sS'Q96EU6'
p5418
g2
((lp5419
S'IPR009292'
p5420
atp5421
Rp5422
sS'Q3LHH8'
p5423
g2
((lp5424
S'IPR032253'
p5425
atp5426
Rp5427
sS'P43267'
p5428
g2
((lp5429
S'IPR036910'
p5430
aS'IPR009071'
p5431
atp5432
Rp5433
sS'Q8CGS4'
p5434
g2
((lp5435
S'IPR005024'
p5436
atp5437
Rp5438
sS'P47032'
p5439
g2
((lp5440
S'IPR001283'
p5441
aS'IPR018244'
p5442
aS'IPR035940'
p5443
aS'IPR034120'
p5444
aS'IPR014044'
p5445
atp5446
Rp5447
sS'O14318'
p5448
g2
((lp5449
S'IPR018287'
p5450
atp5451
Rp5452
sS'O35263'
p5453
g2
((lp5454
S'IPR036514'
p5455
aS'IPR013830'
p5456
atp5457
Rp5458
sS'Q13442'
p5459
g2
((lp5460
S'IPR019380'
p5461
atp5462
Rp5463
sS'P07260'
p5464
g2
((lp5465
S'IPR023398'
p5466
aS'IPR019770'
p5467
aS'IPR001040'
p5468
atp5469
Rp5470
sS'O60234'
p5471
g2
((lp5472
S'IPR002108'
p5473
aS'IPR029006'
p5474
aS'IPR011171'
p5475
atp5476
Rp5477
sS'Q9UMR7'
p5478
g2
((lp5479
S'IPR033989'
p5480
aS'IPR016186'
p5481
aS'IPR018378'
p5482
aS'IPR001304'
p5483
aS'IPR016187'
p5484
atp5485
Rp5486
sS'P62273'
p5487
g2
((lp5488
S'IPR001209'
p5489
aS'IPR018271'
p5490
atp5491
Rp5492
sS'O15145'
p5493
g2
((lp5494
S'IPR036753'
p5495
aS'IPR007204'
p5496
atp5497
Rp5498
sS'Q94A57'
p5499
g2
((lp5500
S'IPR025756'
p5501
aS'IPR006447'
p5502
aS'IPR001005'
p5503
aS'IPR017930'
p5504
aS'IPR009057'
p5505
atp5506
Rp5507
sS'P33122'
p5508
g2
((lp5509
S'IPR011598'
p5510
aS'IPR036638'
p5511
atp5512
Rp5513
sS'Q9P0N8'
p5514
g2
((lp5515
S'IPR013083'
p5516
aS'IPR011016'
p5517
atp5518
Rp5519
sS'O15266'
p5520
g2
((lp5521
S'IPR009057'
p5522
aS'IPR017970'
p5523
aS'IPR001356'
p5524
aS'IPR003654'
p5525
aS'IPR000047'
p5526
atp5527
Rp5528
sS'P39015'
p5529
g2
((lp5530
S'IPR019084'
p5531
aS'IPR006861'
p5532
atp5533
Rp5534
sS'O55232'
p5535
g2
((lp5536
S'IPR001704'
p5537
atp5538
Rp5539
sS'Q7RTV0'
p5540
g2
((lp5541
S'IPR005345'
p5542
atp5543
Rp5544
sS'P23833'
p5545
g2
((lp5546
S'IPR003782'
p5547
aS'IPR017276'
p5548
aS'IPR036249'
p5549
atp5550
Rp5551
sS'P33308'
p5552
g2
((lp5553
S'IPR011425'
p5554
atp5555
Rp5556
sS'P01098'
p5557
g2
((lp5558
S'IPR007648'
p5559
atp5560
Rp5561
sS'P01150'
p5562
g2
((lp5563
S'IPR008857'
p5564
atp5565
Rp5566
sS'P14200'
p5567
g2
((lp5568
S'IPR005456'
p5569
atp5570
Rp5571
sS'Q9CA51'
p5572
g2
((lp5573
S'IPR006456'
p5574
atp5575
Rp5576
sS'P17433'
p5577
g2
((lp5578
S'IPR036388'
p5579
aS'IPR000418'
p5580
aS'IPR036390'
p5581
atp5582
Rp5583
sS'Q12287'
p5584
g2
((lp5585
S'IPR009069'
p5586
aS'IPR007745'
p5587
atp5588
Rp5589
sS'Q6NZ36'
p5590
g2
((lp5591
S'IPR031491'
p5592
aS'IPR031490'
p5593
atp5594
Rp5595
sS'P35270'
p5596
g2
((lp5597
S'IPR002347'
p5598
aS'IPR036291'
p5599
aS'IPR006393'
p5600
atp5601
Rp5602
sS'Q9NVS9'
p5603
g2
((lp5604
S'IPR019576'
p5605
aS'IPR012349'
p5606
aS'IPR011576'
p5607
aS'IPR000659'
p5608
aS'IPR019740'
p5609
atp5610
Rp5611
sS'Q8TAT2'
p5612
g2
((lp5613
S'IPR010510'
p5614
atp5615
Rp5616
sS'Q9H3N1'
p5617
g2
((lp5618
S'IPR017937'
p5619
aS'IPR036249'
p5620
aS'IPR013766'
p5621
atp5622
Rp5623
sS'Q92826'
p5624
g2
((lp5625
S'IPR009057'
p5626
aS'IPR017970'
p5627
aS'IPR022067'
p5628
aS'IPR001356'
p5629
atp5630
Rp5631
sS'P56385'
p5632
g2
((lp5633
S'IPR008386'
p5634
atp5635
Rp5636
sS'P01160'
p5637
g2
((lp5638
S'IPR000663'
p5639
aS'IPR002407'
p5640
aS'IPR030480'
p5641
atp5642
Rp5643
sS'Q6ZMJ4'
p5644
g2
((lp5645
S'IPR020415'
p5646
atp5647
Rp5648
sS'P56381'
p5649
g2
((lp5650
S'IPR036742'
p5651
aS'IPR006721'
p5652
atp5653
Rp5654
sS'P23968'
p5655
g2
((lp5656
S'IPR035921'
p5657
aS'IPR000245'
p5658
aS'IPR002379'
p5659
atp5660
Rp5661
sS'P56388'
p5662
g2
((lp5663
S'IPR036722'
p5664
aS'IPR009106'
p5665
atp5666
Rp5667
sS'P05305'
p5668
g2
((lp5669
S'IPR001928'
p5670
aS'IPR020475'
p5671
aS'IPR019764'
p5672
atp5673
Rp5674
sS'Q9Y6B6'
p5675
g2
((lp5676
S'IPR006689'
p5677
aS'IPR005225'
p5678
aS'IPR027417'
p5679
aS'IPR006687'
p5680
atp5681
Rp5682
sS'Q96GR4'
p5683
g2
((lp5684
S'IPR001594'
p5685
atp5686
Rp5687
sS'P32607'
p5688
g2
((lp5689
S'IPR011598'
p5690
aS'IPR036638'
p5691
atp5692
Rp5693
sS'O14222'
p5694
g2
((lp5695
S'IPR000727'
p5696
atp5697
Rp5698
sS'P32971'
p5699
g2
((lp5700
S'IPR008983'
p5701
aS'IPR021184'
p5702
aS'IPR021185'
p5703
aS'IPR006052'
p5704
atp5705
Rp5706
sS'P32970'
p5707
g2
((lp5708
S'IPR008983'
p5709
aS'IPR021184'
p5710
aS'IPR006052'
p5711
atp5712
Rp5713
sS'O15318'
p5714
g2
((lp5715
S'IPR024661'
p5716
atp5717
Rp5718
sS'Q4PIR3'
p5719
g2
((lp5720
S'IPR013083'
p5721
aS'IPR004181'
p5722
atp5723
Rp5724
sS'P43639'
p5725
g2
((lp5726
S'IPR000704'
p5727
aS'IPR016149'
p5728
aS'IPR035991'
p5729
atp5730
Rp5731
sS'Q9FGD6'
p5732
g2
((lp5733
S'IPR003851'
p5734
atp5735
Rp5736
sS'P09017'
p5737
g2
((lp5738
S'IPR001827'
p5739
aS'IPR017995'
p5740
aS'IPR020479'
p5741
aS'IPR009057'
p5742
aS'IPR017970'
p5743
aS'IPR001356'
p5744
atp5745
Rp5746
sS'P10153'
p5747
g2
((lp5748
S'IPR001427'
p5749
aS'IPR036816'
p5750
aS'IPR023412'
p5751
aS'IPR023411'
p5752
atp5753
Rp5754
sS'P25325'
p5755
g2
((lp5756
S'IPR036873'
p5757
aS'IPR001763'
p5758
aS'IPR001307'
p5759
atp5760
Rp5761
sS'Q91ZY6'
p5762
g2
((lp5763
S'IPR036388'
p5764
aS'IPR010776'
p5765
aS'IPR036390'
p5766
atp5767
Rp5768
sS'P32610'
p5769
g2
((lp5770
S'IPR002699'
p5771
atp5772
Rp5773
sS'P22203'
p5774
g2
((lp5775
S'IPR002842'
p5776
atp5777
Rp5778
sS'P53305'
p5779
g2
((lp5780
S'IPR013219'
p5781
atp5782
Rp5783
sS'P12273'
p5784
g2
((lp5785
S'IPR007990'
p5786
aS'IPR013783'
p5787
aS'IPR014756'
p5788
atp5789
Rp5790
sS'Q9VDH8'
p5791
g2
((lp5792
S'IPR006846'
p5793
aS'IPR029071'
p5794
atp5795
Rp5796
sS'P53538'
p5797
g2
((lp5798
S'IPR006811'
p5799
atp5800
Rp5801
sS'Q9Y3C8'
p5802
g2
((lp5803
S'IPR014806'
p5804
aS'IPR016135'
p5805
atp5806
Rp5807
sS'Q9HAV5'
p5808
g2
((lp5809
S'IPR022319'
p5810
aS'IPR001368'
p5811
aS'IPR034060'
p5812
atp5813
Rp5814
sS'Q9NY12'
p5815
g2
((lp5816
S'IPR009000'
p5817
aS'IPR007504'
p5818
aS'IPR021154'
p5819
atp5820
Rp5821
sS'O75935'
p5822
g2
((lp5823
S'IPR009991'
p5824
atp5825
Rp5826
sS'Q41188'
p5827
g2
((lp5828
S'IPR011129'
p5829
aS'IPR019844'
p5830
aS'IPR012340'
p5831
aS'IPR002059'
p5832
aS'IPR001878'
p5833
aS'IPR036875'
p5834
atp5835
Rp5836
sS'P43120'
p5837
g2
((lp5838
S'IPR020479'
p5839
aS'IPR009057'
p5840
aS'IPR017970'
p5841
aS'IPR001356'
p5842
atp5843
Rp5844
sS'Q80WB5'
p5845
g2
((lp5846
S'IPR023128'
p5847
aS'IPR037132'
p5848
atp5849
Rp5850
sS'P87294'
p5851
g2
((lp5852
S'IPR009044'
p5853
aS'IPR003173'
p5854
atp5855
Rp5856
sS'P43682'
p5857
g2
((lp5858
S'IPR000727'
p5859
atp5860
Rp5861
sS'P97309'
p5862
g2
((lp5863
S'IPR011598'
p5864
aS'IPR036638'
p5865
atp5866
Rp5867
sS'P41223'
p5868
g2
((lp5869
S'IPR018230'
p5870
aS'IPR001748'
p5871
atp5872
Rp5873
sS'Q8NBQ5'
p5874
g2
((lp5875
S'IPR002347'
p5876
aS'IPR036291'
p5877
atp5878
Rp5879
sS'Q5VZV1'
p5880
g2
((lp5881
S'IPR029063'
p5882
aS'IPR019410'
p5883
atp5884
Rp5885
sS'P42939'
p5886
g2
((lp5887
S'IPR019014'
p5888
atp5889
Rp5890
sS'Q9BYC8'
p5891
g2
((lp5892
S'IPR011332'
p5893
aS'IPR002677'
p5894
atp5895
Rp5896
sS'P49200'
p5897
g2
((lp5898
S'IPR005729'
p5899
aS'IPR018268'
p5900
aS'IPR001848'
p5901
aS'IPR036838'
p5902
aS'IPR027486'
p5903
atp5904
Rp5905
sS'Q9Y7P0'
p5906
g2
((lp5907
S'IPR023366'
p5908
aS'IPR026017'
p5909
aS'IPR001783'
p5910
aS'IPR017938'
p5911
atp5912
Rp5913
sS'Q02486'
p5914
g2
((lp5915
S'IPR036910'
p5916
aS'IPR009071'
p5917
atp5918
Rp5919
sS'P49205'
p5920
g2
((lp5921
S'IPR001210'
p5922
aS'IPR036401'
p5923
aS'IPR018273'
p5924
atp5925
Rp5926
sS'Q9VLD7'
p5927
g2
((lp5928
S'IPR018867'
p5929
atp5930
Rp5931
sS'Q99278'
p5932
g2
((lp5933
S'IPR019404'
p5934
atp5935
Rp5936
sS'Q8N983'
p5937
g2
((lp5938
S'IPR007741'
p5939
aS'IPR036249'
p5940
atp5941
Rp5942
sS'P15700'
p5943
g2
((lp5944
S'IPR033690'
p5945
aS'IPR000850'
p5946
aS'IPR006266'
p5947
aS'IPR027417'
p5948
atp5949
Rp5950
sS'P25642'
p5951
g2
((lp5952
S'IPR007740'
p5953
atp5954
Rp5955
sS'P14220'
p5956
g2
((lp5957
S'IPR001195'
p5958
aS'IPR018938'
p5959
atp5960
Rp5961
sS'Q0VD86'
p5962
g2
((lp5963
S'IPR026238'
p5964
atp5965
Rp5966
sS'Q80UW2'
p5967
g2
((lp5968
S'IPR007397'
p5969
aS'IPR036047'
p5970
aS'IPR001810'
p5971
aS'IPR008979'
p5972
atp5973
Rp5974
sS'Q5VZY2'
p5975
g2
((lp5976
S'IPR000326'
p5977
aS'IPR036938'
p5978
atp5979
Rp5980
sS'P40518'
p5981
g2
((lp5982
S'IPR006789'
p5983
aS'IPR036743'
p5984
atp5985
Rp5986
sS'Q8LBA6'
p5987
g2
((lp5988
S'IPR000462'
p5989
aS'IPR014387'
p5990
atp5991
Rp5992
sS'Q9NQP4'
p5993
g2
((lp5994
S'IPR002777'
p5995
aS'IPR016661'
p5996
atp5997
Rp5998
sS'P32352'
p5999
g2
((lp6000
S'IPR006716'
p6001
atp6002
Rp6003
sS'P25385'
p6004
g2
((lp6005
S'IPR027027'
p6006
atp6007
Rp6008
sS'P97769'
p6009
g2
((lp6010
S'IPR007576'
p6011
atp6012
Rp6013
sS'Q9SX99'
p6014
g2
((lp6015
S'IPR000424'
p6016
aS'IPR012340'
p6017
atp6018
Rp6019
sS'P56405'
p6020
g2
((lp6021
S'IPR022357'
p6022
aS'IPR023271'
p6023
aS'IPR023277'
p6024
aS'IPR000425'
p6025
atp6026
Rp6027
sS'O43674'
p6028
g2
((lp6029
S'IPR019173'
p6030
atp6031
Rp6032
sS'O43677'
p6033
g2
((lp6034
S'IPR026192'
p6035
atp6036
Rp6037
sS'Q9EPA7'
p6038
g2
((lp6039
S'IPR005248'
p6040
aS'IPR014729'
p6041
aS'IPR004821'
p6042
atp6043
Rp6044
sS'P97947'
p6045
g2
((lp6046
S'IPR035500'
p6047
aS'IPR000536'
p6048
aS'IPR001723'
p6049
atp6050
Rp6051
sS'G3XCW9'
p6052
g2
((lp6053
S'IPR036505'
p6054
aS'IPR002502'
p6055
atp6056
Rp6057
sS'P10083'
p6058
g2
((lp6059
S'IPR011598'
p6060
aS'IPR036638'
p6061
atp6062
Rp6063
sS'Q9VAN6'
p6064
g2
((lp6065
S'IPR029344'
p6066
atp6067
Rp6068
sS'Q9P031'
p6069
g2
((lp6070
S'IPR013730'
p6071
atp6072
Rp6073
sS'Q9ZR03'
p6074
g2
((lp6075
S'IPR005805'
p6076
aS'IPR036922'
p6077
aS'IPR023960'
p6078
aS'IPR017941'
p6079
aS'IPR014909'
p6080
atp6081
Rp6082
sS'Q07923'
p6083
g2
((lp6084
S'IPR029039'
p6085
aS'IPR005025'
p6086
atp6087
Rp6088
sS'P0C7A0'
p6089
g2
((lp6090
S'IPR031952'
p6091
atp6092
Rp6093
sS'P0CB39'
p6094
g2
((lp6095
S'IPR012549'
p6096
aS'IPR000917'
p6097
aS'IPR017850'
p6098
aS'IPR017849'
p6099
atp6100
Rp6101
sS'Q8GSJ6'
p6102
g2
((lp6103
S'IPR036410'
p6104
atp6105
Rp6106
sS'Q9SWE5'
p6107
g2
((lp6108
S'IPR036551'
p6109
aS'IPR003382'
p6110
atp6111
Rp6112
sS'Q9JMF7'
p6113
g2
((lp6114
S'IPR000326'
p6115
aS'IPR036938'
p6116
atp6117
Rp6118
sS'P81172'
p6119
g2
((lp6120
S'IPR010500'
p6121
atp6122
Rp6123
sS'Q96H20'
p6124
g2
((lp6125
S'IPR036388'
p6126
aS'IPR036390'
p6127
aS'IPR016689'
p6128
aS'IPR007286'
p6129
atp6130
Rp6131
sS'Q05466'
p6132
g2
((lp6133
S'IPR009057'
p6134
aS'IPR017970'
p6135
aS'IPR001356'
p6136
aS'IPR006712'
p6137
aS'IPR003106'
p6138
aS'IPR000047'
p6139
atp6140
Rp6141
sS'O43555'
p6142
g2
((lp6143
S'IPR002012'
p6144
atp6145
Rp6146
sS'Q96S99'
p6147
g2
((lp6148
S'IPR011011'
p6149
aS'IPR013083'
p6150
aS'IPR000306'
p6151
aS'IPR017455'
p6152
aS'IPR011993'
p6153
aS'IPR001849'
p6154
atp6155
Rp6156
sS'Q9H4A6'
p6157
g2
((lp6158
S'IPR008628'
p6159
atp6160
Rp6161
sS'Q15056'
p6162
g2
((lp6163
S'IPR034229'
p6164
aS'IPR000504'
p6165
aS'IPR035979'
p6166
atp6167
Rp6168
sS'Q6IN01'
p6169
g2
((lp6170
S'IPR005036'
p6171
aS'IPR013783'
p6172
aS'IPR017434'
p6173
atp6174
Rp6175
sS'Q08689'
p6176
g2
((lp6177
S'IPR016181'
p6178
aS'IPR000182'
p6179
atp6180
Rp6181
sS'Q9Z325'
p6182
g2
((lp6183
S'IPR009914'
p6184
atp6185
Rp6186
sS'Q9XFD1'
p6187
g2
((lp6188
S'IPR034148'
p6189
aS'IPR000504'
p6190
aS'IPR035979'
p6191
atp6192
Rp6193
sS'Q9P0M4'
p6194
g2
((lp6195
S'IPR020440'
p6196
aS'IPR010345'
p6197
aS'IPR029034'
p6198
atp6199
Rp6200
sS'P69801'
p6201
g2
((lp6202
S'IPR004700'
p6203
atp6204
Rp6205
sS'Q16534'
p6206
g2
((lp6207
S'IPR004827'
p6208
atp6209
Rp6210
sS'Q9Y224'
p6211
g2
((lp6212
S'IPR019265'
p6213
atp6214
Rp6215
sS'Q03799'
p6216
g2
((lp6217
S'IPR035987'
p6218
aS'IPR000630'
p6219
atp6220
Rp6221
sS'Q99470'
p6222
g2
((lp6223
S'IPR036300'
p6224
aS'IPR016093'
p6225
atp6226
Rp6227
sS'Q13243'
p6228
g2
((lp6229
S'IPR000504'
p6230
aS'IPR035585'
p6231
aS'IPR035979'
p6232
atp6233
Rp6234
sS'O95249'
p6235
g2
((lp6236
S'IPR023601'
p6237
atp6238
Rp6239
sS'Q13241'
p6240
g2
((lp6241
S'IPR033992'
p6242
aS'IPR016186'
p6243
aS'IPR001304'
p6244
aS'IPR016187'
p6245
atp6246
Rp6247
sS'O70351'
p6248
g2
((lp6249
S'IPR002347'
p6250
aS'IPR036291'
p6251
aS'IPR020904'
p6252
atp6253
Rp6254
sS'Q8BNX1'
p6255
g2
((lp6256
S'IPR016187'
p6257
aS'IPR001304'
p6258
aS'IPR016186'
p6259
aS'IPR018378'
p6260
atp6261
Rp6262
sS'Q6ZRY4'
p6263
g2
((lp6264
S'IPR000504'
p6265
aS'IPR034787'
p6266
aS'IPR035979'
p6267
atp6268
Rp6269
sS'Q946Y7'
p6270
g2
((lp6271
S'IPR006012'
p6272
aS'IPR015260'
p6273
aS'IPR010989'
p6274
aS'IPR000727'
p6275
atp6276
Rp6277
sS'P09402'
p6278
g2
((lp6279
S'IPR011992'
p6280
aS'IPR018247'
p6281
aS'IPR002048'
p6282
atp6283
Rp6284
sS'Q8R191'
p6285
g2
((lp6286
S'IPR008253'
p6287
aS'IPR016579'
p6288
atp6289
Rp6290
sS'Q7KBL8'
p6291
g2
((lp6292
S'IPR021018'
p6293
atp6294
Rp6295
sS'Q9SRH5'
p6296
g2
((lp6297
S'IPR027246'
p6298
aS'IPR001925'
p6299
atp6300
Rp6301
sS'P13096'
p6302
g2
((lp6303
S'IPR011598'
p6304
aS'IPR036638'
p6305
aS'IPR003650'
p6306
atp6307
Rp6308
sS'P40080'
p6309
g2
((lp6310
S'IPR013640'
p6311
atp6312
Rp6313
sS'P10906'
p6314
g2
((lp6315
S'IPR035906'
p6316
aS'IPR000515'
p6317
atp6318
Rp6319
sS'P39111'
p6320
g2
((lp6321
S'IPR005772'
p6322
aS'IPR036906'
p6323
aS'IPR008218'
p6324
atp6325
Rp6326
sS'P36975'
p6327
g2
((lp6328
S'IPR000727'
p6329
aS'IPR000928'
p6330
atp6331
Rp6332
sS'P10905'
p6333
g2
((lp6334
S'IPR035906'
p6335
aS'IPR000515'
p6336
atp6337
Rp6338
sS'O14796'
p6339
g2
((lp6340
S'IPR036860'
p6341
aS'IPR035049'
p6342
aS'IPR000980'
p6343
atp6344
Rp6345
sS'O74409'
p6346
g2
((lp6347
S'IPR019842'
p6348
aS'IPR002042'
p6349
atp6350
Rp6351
sS'P43025'
p6352
g2
((lp6353
S'IPR018378'
p6354
aS'IPR016186'
p6355
aS'IPR001304'
p6356
aS'IPR016187'
p6357
atp6358
Rp6359
sS'O14798'
p6360
g2
((lp6361
S'IPR020465'
p6362
aS'IPR001368'
p6363
aS'IPR034024'
p6364
atp6365
Rp6366
sS'O13453'
p6367
g2
((lp6368
S'IPR029021'
p6369
aS'IPR020422'
p6370
aS'IPR000340'
p6371
aS'IPR000387'
p6372
atp6373
Rp6374
sS'Q9BUP3'
p6375
g2
((lp6376
S'IPR036291'
p6377
aS'IPR016040'
p6378
atp6379
Rp6380
sS'Q9NYW5'
p6381
g2
((lp6382
S'IPR030055'
p6383
aS'IPR007960'
p6384
atp6385
Rp6386
sS'P82970'
p6387
g2
((lp6388
S'IPR000079'
p6389
atp6390
Rp6391
sS'O82245'
p6392
g2
((lp6393
S'IPR004307'
p6394
atp6395
Rp6396
sS'P56751'
p6397
g2
((lp6398
S'IPR000440'
p6399
aS'IPR023043'
p6400
atp6401
Rp6402
sS'Q2YFS2'
p6403
g2
((lp6404
S'IPR013783'
p6405
aS'IPR036179'
p6406
atp6407
Rp6408
sS'Q9BTL4'
p6409
g2
((lp6410
S'IPR008653'
p6411
atp6412
Rp6413
sS'Q9Z0W7'
p6414
g2
((lp6415
S'IPR002946'
p6416
aS'IPR036282'
p6417
aS'IPR036249'
p6418
aS'IPR010987'
p6419
atp6420
Rp6421
sS'P97436'
p6422
g2
((lp6423
S'IPR020479'
p6424
aS'IPR009057'
p6425
aS'IPR017970'
p6426
aS'IPR001356'
p6427
atp6428
Rp6429
sS'Q6P1K1'
p6430
g2
((lp6431
S'IPR026218'
p6432
atp6433
Rp6434
sS'P52434'
p6435
g2
((lp6436
S'IPR012340'
p6437
aS'IPR005570'
p6438
atp6439
Rp6440
sS'P56134'
p6441
g2
((lp6442
S'IPR019344'
p6443
atp6444
Rp6445
sS'P40883'
p6446
g2
((lp6447
S'IPR009057'
p6448
aS'IPR018062'
p6449
aS'IPR018060'
p6450
atp6451
Rp6452
sS'Q12284'
p6453
g2
((lp6454
S'IPR036774'
p6455
aS'IPR017905'
p6456
atp6457
Rp6458
sS'P01189'
p6459
g2
((lp6460
S'IPR013531'
p6461
aS'IPR013532'
p6462
aS'IPR001941'
p6463
aS'IPR013593'
p6464
atp6465
Rp6466
sS'Q80UA9'
p6467
g2
((lp6468
S'IPR025929'
p6469
atp6470
Rp6471
sS'O23049'
p6472
g2
((lp6473
S'IPR002358'
p6474
aS'IPR019906'
p6475
aS'IPR020040'
p6476
aS'IPR036789'
p6477
aS'IPR000702'
p6478
atp6479
Rp6480
sS'O15467'
p6481
g2
((lp6482
S'IPR000827'
p6483
aS'IPR001811'
p6484
aS'IPR036048'
p6485
atp6486
Rp6487
sS'Q53HV7'
p6488
g2
((lp6489
S'IPR036895'
p6490
atp6491
Rp6492
sS'P01186'
p6493
g2
((lp6494
S'IPR000981'
p6495
aS'IPR022423'
p6496
aS'IPR036387'
p6497
atp6498
Rp6499
sS'Q15125'
p6500
g2
((lp6501
S'IPR033118'
p6502
aS'IPR007905'
p6503
atp6504
Rp6505
sS'Q15126'
p6506
g2
((lp6507
S'IPR005919'
p6508
aS'IPR027417'
p6509
atp6510
Rp6511
sS'Q96FW1'
p6512
g2
((lp6513
S'IPR019400'
p6514
aS'IPR016615'
p6515
aS'IPR003323'
p6516
atp6517
Rp6518
sS'Q96MH2'
p6519
g2
((lp6520
S'IPR024872'
p6521
atp6522
Rp6523
sS'Q9W0C2'
p6524
g2
((lp6525
S'IPR001388'
p6526
atp6527
Rp6528
sS'Q810B3'
p6529
g2
((lp6530
S'IPR020479'
p6531
aS'IPR009057'
p6532
aS'IPR017970'
p6533
aS'IPR001356'
p6534
atp6535
Rp6536
sS'P29372'
p6537
g2
((lp6538
S'IPR011034'
p6539
aS'IPR036995'
p6540
aS'IPR003180'
p6541
atp6542
Rp6543
sS'P63173'
p6544
g2
((lp6545
S'IPR002675'
p6546
atp6547
Rp6548
sS'Q86W47'
p6549
g2
((lp6550
S'IPR003930'
p6551
atp6552
Rp6553
sS'P63272'
p6554
g2
((lp6555
S'IPR022800'
p6556
aS'IPR029040'
p6557
aS'IPR009287'
p6558
atp6559
Rp6560
sS'Q9Y5N5'
p6561
g2
((lp6562
S'IPR002052'
p6563
aS'IPR004557'
p6564
aS'IPR029063'
p6565
aS'IPR007848'
p6566
atp6567
Rp6568
sS'Q38905'
p6569
g2
((lp6570
S'IPR005455'
p6571
aS'IPR027310'
p6572
aS'IPR036140'
p6573
atp6574
Rp6575
sS'P43255'
p6576
g2
((lp6577
S'IPR036388'
p6578
aS'IPR033464'
p6579
atp6580
Rp6581
sS'Q91VK4'
p6582
g2
((lp6583
S'IPR007084'
p6584
atp6585
Rp6586
sS'Q00472'
p6587
g2
((lp6588
S'IPR023214'
p6589
aS'IPR036412'
p6590
aS'IPR006357'
p6591
aS'IPR006349'
p6592
atp6593
Rp6594
sS'P05814'
p6595
g2
((lp6596
S'IPR001588'
p6597
aS'IPR016345'
p6598
aS'IPR031305'
p6599
atp6600
Rp6601
sS'P47928'
p6602
g2
((lp6603
S'IPR011598'
p6604
aS'IPR036638'
p6605
atp6606
Rp6607
sS'Q9HZZ4'
p6608
g2
((lp6609
S'IPR036388'
p6610
aS'IPR000835'
p6611
aS'IPR036390'
p6612
atp6613
Rp6614
sS'Q9WTP9'
p6615
g2
((lp6616
S'IPR020479'
p6617
aS'IPR000047'
p6618
aS'IPR017970'
p6619
aS'IPR001356'
p6620
aS'IPR009057'
p6621
atp6622
Rp6623
sS'P40259'
p6624
g2
((lp6625
S'IPR003599'
p6626
aS'IPR007110'
p6627
aS'IPR036179'
p6628
aS'IPR013106'
p6629
aS'IPR013783'
p6630
aS'IPR003110'
p6631
atp6632
Rp6633
sS'P46779'
p6634
g2
((lp6635
S'IPR029004'
p6636
atp6637
Rp6638
sS'Q9BRA2'
p6639
g2
((lp6640
S'IPR036249'
p6641
aS'IPR010357'
p6642
atp6643
Rp6644
sS'P19516'
p6645
g2
((lp6646
S'IPR007533'
p6647
aS'IPR023471'
p6648
atp6649
Rp6650
sS'Q8LDF9'
p6651
g2
((lp6652
S'IPR036910'
p6653
aS'IPR009071'
p6654
atp6655
Rp6656
sS'Q01984'
p6657
g2
((lp6658
S'IPR016673'
p6659
aS'IPR029063'
p6660
atp6661
Rp6662
sS'P0AF90'
p6663
g2
((lp6664
S'IPR016716'
p6665
aS'IPR036701'
p6666
aS'IPR009671'
p6667
atp6668
Rp6669
sS'P53193'
p6670
g2
((lp6671
S'IPR036869'
p6672
aS'IPR001623'
p6673
aS'IPR004640'
p6674
aS'IPR036386'
p6675
aS'IPR009073'
p6676
atp6677
Rp6678
sS'P49765'
p6679
g2
((lp6680
S'IPR000072'
p6681
aS'IPR023581'
p6682
aS'IPR029034'
p6683
atp6684
Rp6685
sS'Q9UBP6'
p6686
g2
((lp6687
S'IPR025763'
p6688
aS'IPR029063'
p6689
aS'IPR003358'
p6690
atp6691
Rp6692
sS'P49763'
p6693
g2
((lp6694
S'IPR000072'
p6695
aS'IPR023581'
p6696
aS'IPR029034'
p6697
atp6698
Rp6699
sS'P69805'
p6700
g2
((lp6701
S'IPR004704'
p6702
atp6703
Rp6704
sS'Q9P7M3'
p6705
g2
((lp6706
S'IPR027520'
p6707
aS'IPR000305'
p6708
aS'IPR035901'
p6709
atp6710
Rp6711
sS'Q9UNK0'
p6712
g2
((lp6713
S'IPR000727'
p6714
atp6715
Rp6716
sS'P0A924'
p6717
g2
((lp6718
S'IPR000326'
p6719
aS'IPR036938'
p6720
atp6721
Rp6722
sS'Q9D6Z6'
p6723
g2
((lp6724
S'IPR008996'
p6725
aS'IPR020877'
p6726
aS'IPR000975'
p6727
atp6728
Rp6729
sS'Q6UW88'
p6730
g2
((lp6731
S'IPR013032'
p6732
aS'IPR000742'
p6733
atp6734
Rp6735
sS'P0A8C8'
p6736
g2
((lp6737
S'IPR002696'
p6738
atp6739
Rp6740
sS'P13432'
p6741
g2
((lp6742
S'IPR026288'
p6743
atp6744
Rp6745
sS'P36980'
p6746
g2
((lp6747
S'IPR035976'
p6748
aS'IPR000436'
p6749
atp6750
Rp6751
sS'Q5DT21'
p6752
g2
((lp6753
S'IPR002350'
p6754
aS'IPR036058'
p6755
aS'IPR001239'
p6756
atp6757
Rp6758
sS'Q9D1N2'
p6759
g2
((lp6760
S'IPR016054'
p6761
aS'IPR018363'
p6762
atp6763
Rp6764
sS'P40084'
p6765
g2
((lp6766
S'IPR007308'
p6767
atp6768
Rp6769
sS'P01298'
p6770
g2
((lp6771
S'IPR020392'
p6772
aS'IPR001955'
p6773
atp6774
Rp6775
sS'Q9VH14'
p6776
g2
((lp6777
S'IPR008993'
p6778
aS'IPR001134'
p6779
aS'IPR027465'
p6780
aS'IPR001820'
p6781
atp6782
Rp6783
sS'Q96HR3'
p6784
g2
((lp6785
S'IPR021019'
p6786
atp6787
Rp6788
sS'Q16740'
p6789
g2
((lp6790
S'IPR023562'
p6791
aS'IPR001907'
p6792
aS'IPR033135'
p6793
aS'IPR029045'
p6794
aS'IPR018215'
p6795
atp6796
Rp6797
sS'P37051'
p6798
g2
((lp6799
S'IPR002912'
p6800
aS'IPR036477'
p6801
aS'IPR002376'
p6802
aS'IPR004810'
p6803
atp6804
Rp6805
sS'O81822'
p6806
g2
((lp6807
S'IPR008978'
p6808
aS'IPR002068'
p6809
atp6810
Rp6811
sS'P12004'
p6812
g2
((lp6813
S'IPR022648'
p6814
aS'IPR022649'
p6815
aS'IPR000730'
p6816
aS'IPR022659'
p6817
atp6818
Rp6819
sS'Q8BWU1'
p6820
g2
((lp6821
S'IPR029238'
p6822
atp6823
Rp6824
sS'Q16667'
p6825
g2
((lp6826
S'IPR029021'
p6827
aS'IPR008425'
p6828
aS'IPR022778'
p6829
aS'IPR003595'
p6830
aS'IPR000387'
p6831
atp6832
Rp6833
sS'K9M1U5'
p6834
g2
((lp6835
S'IPR029177'
p6836
atp6837
Rp6838
sS'Q86HE5'
p6839
g2
((lp6840
S'IPR017853'
p6841
atp6842
Rp6843
s.